(dp1
S'Anton Raphael Mengs'
p2
S'Neoclassicism'
p3
sS'Rogier van der Weyden'
p4
S'Renaissance, Northern'
p5
sS'Keith Sonnier'
p6
S'Minimalism'
p7
sS'Francesco del Cossa'
p8
S'Renaissance, Early'
p9
sS'Pino Pascali'
p10
S'Arte Povera'
p11
sS'Eva Gonzales'
p12
S'Impressionism'
p13
sS'Giovanni da Nola'
p14
S'Renaissance, High'
p15
sS'Honore Daumier'
p16
S'Realism'
p17
sS'N.C. Wyeth'
p18
S'Golden Age of Illustration'
p19
sS'Abraham van der Hecken'
p20
S'Baroque Art'
p21
sS'Adriaen Hanneman'
p22
g21
sS'Arthur Bowen Davies'
p23
S'Symbolism'
p24
sS'Everett Shinn'
p25
S'Ashcan School'
p26
sS'Gavin Hamilton'
p27
g3
sS'Edgar Degas'
p28
g17
sS'Clyde Singer'
p29
S'Regionalism'
p30
sS'Jacques Daret'
p31
g5
sS'Master of the Marble Madonnas'
p32
g9
sS'Jean-Germain Drouais'
p33
g3
sS'Moretto da Brescia'
p34
g15
sS'Giovanni Battista Caracciolo'
p35
g21
sS'Hokuei'
p36
S'Ukiyo-e'
p37
sS'Jean-Baptiste Perronneau'
p38
S'Rococo Style'
p39
sS'Philipp Peter Roos'
p40
g21
sS'John Lee'
p41
S'Pre-Raphaelite Brotherhood'
p42
sS'Jan van Call I'
p43
g21
sS'Hans Eworth'
p44
g5
sS'Nicolo di Pietro'
p45
g9
sS'Sidney Meteyard'
p46
g42
sS'Gaetano Previati'
p47
g24
sS'Conrad Laib'
p48
g5
sS'Lambert Doomer'
p49
g21
sS'Julian Onderdonk'
p50
g13
sS'Edouard Debat-Ponsan'
p51
S'Academic Art'
p52
sS'Bob Thompson'
p53
S'Expressionism'
p54
sS'Jose Claudio Antolinez'
p55
g21
sS'Francesco Bordoni'
p56
g21
sS'Paul Delvaux'
p57
S'Surrealism'
p58
sS'Ventura Salimbeni'
p59
g21
sS'Robert Morris'
p60
g7
sS'Simon de Vos'
p61
g21
sS'Giorgione'
p62
g15
sS'Morris Graves'
p63
S'Abstract Expressionism'
p64
sS'Vincent Laurensz van der Vinne'
p65
g21
sS'Jan Lievens'
p66
g21
sS'Henri Manguin'
p67
S'Fauvism'
p68
sS'Frederick Walker'
p69
S'Social Realism'
p70
sS'Georg Raphael Donner'
p71
g39
sS'Charles de La Fosse'
p72
g21
sS'Rene Lalique'
p73
S'Art Deco'
p74
sS'Alessandro Turchi'
p75
g21
sS'Orazio de Ferrari'
p76
g21
sS'Master of the Manna'
p77
g9
sS'Thomas Hill'
p78
S'Hudson River School'
p79
sS'Benjamin West'
p80
g3
sS'Guariento di Arpo'
p81
S'Gothic Art'
p82
sS'Gillis Mostaert'
p83
g5
sS'Gert Wollheim'
p84
g54
sS'Hans Krumper'
p85
g21
sS'Nicolas Cordier'
p86
S'Mannerism'
p87
sS'Lionello Spada'
p88
g21
sS'John J. Enneking'
p89
S'Tonalism'
p90
sS'Callisto Piazza'
p91
g15
sS'Otto Dix'
p92
g54
sS'Viviano Codazzi'
p93
g21
sS'Pieter van Der Heyden'
p94
g5
sS'Nicolas Poussin'
p95
g21
sS'Utagawa Toyoharu'
p96
g37
sS'Vincent Desiderio'
p97
S'Contemporary Realism'
p98
sS'Adriaen van de Velde'
p99
g21
sS'Dirk van Valkenburg'
p100
g21
sS'Jervis McEntee'
p101
g17
sS'Master of the View of Sainte Gudule'
p102
g5
sS'Peter Parler'
p103
g82
sS'Francis Place'
p104
g21
sS'Walter Emerson Baum'
p105
g13
sS'Edwin Lord Weeks'
p106
g52
sS'Marguerite Thompson Zorach'
p107
g68
sS'Pieter Pourbus'
p108
g5
sS'Samuel Cooper'
p109
g21
sS'Salvator Rosa'
p110
g21
sS'John Sell Cotman'
p111
S'Romanticism'
p112
sS'Cornelis Beelt'
p113
g21
sS'Giottino'
p114
g82
sS'Louis Jean Francois Lagrenee'
p115
g3
sS'Charles Harold Davis'
p116
g90
sS'Gregory Gillespie'
p117
S'Magic Realism'
p118
sS'Giovanni Battista Crespi'
p119
g87
sS'Andre Lhote'
p120
S'Cubism'
p121
sS'Sylvia Sleigh'
p122
g98
sS'Louis Le Vau'
p123
g21
sS'Giulio Paolini'
p124
g11
sS'Asher B. Durand'
p125
g79
sS'Narcisse-Virgile Diaz de la Pena'
p126
S'Barbizon School'
p127
sS'Hugo van der Goes'
p128
g5
sS'Jan de Bray'
p129
g21
sS'Simon Bening'
p130
g5
sS'Paul Gauguin'
p131
S'Post-Impressionism'
p132
sS'Bernhard Strigel'
p133
g5
sS'Antoniazzo Romano'
p134
g9
sS'Camillo Rusconi'
p135
g21
sS'Ivan Albright'
p136
g118
sS'Hendrik Bary'
p137
g21
sS'Pesellino'
p138
g9
sS'Fra Filippo Lippi'
p139
g9
sS'Arthur Hughes'
p140
g42
sS'David Vinckboons'
p141
g21
sS'Brusasorci'
p142
g15
sS'Henri Matisse'
p143
g68
sS'Francisco de Palacios'
p144
g21
sS'Warren Criswell'
p145
g98
sS'Henry Lamb'
p146
S'Camden Town Group'
p147
sS'Carlo Maratta'
p148
g21
sS'Franklin de Haven'
p149
g90
sS'Alberto Giacometti'
p150
g58
sS'Morazzone'
p151
g21
sS'Nanni di Banco'
p152
g9
sS'Sargent Claude Johnson'
p153
S'Harlem Renaissance'
p154
sS'Jean-Jacques Henner'
p155
g52
sS'Antonio de Pereda'
p156
g21
sS'Simon Luttichuys'
p157
g21
sS'Antonio Maria Vassallo'
p158
g21
sS'Robert Swain Gifford'
p159
g90
sS'Martin Knoller'
p160
g3
sS'Pavel Tchelitchew'
p161
g58
sS'Kaigetsudo Dohan'
p162
g37
sS'Evelyn de Morgan'
p163
g42
sS'Edward Cucuel'
p164
g13
sS'Cornelis Cornelisz. van Haarlem'
p165
g87
sS'John William Waterhouse'
p166
g42
sS'Ferdinand Georg Waldmuller'
p167
g112
sS'Isidore Pils'
p168
g52
sS'Pietro Tacca'
p169
g21
sS'Adam Elsheimer'
p170
g21
sS'Bonifacio Bembo'
p171
g9
sS'Hendrik van Steenwyck the Younger'
p172
g21
sS'Maximilian Lenz'
p173
g24
sS'Fra Carnevale'
p174
g9
sS'Andy Warhol'
p175
S'Pop Art'
p176
sS'Dmitrii Grigorevich Levitskii'
p177
g39
sS'Neil Welliver'
p178
g98
sS'Johann Liss'
p179
g21
sS'Helen Frankenthaler'
p180
g64
sS'Abraham Janssens'
p181
g21
sS'Bartholomeus Spranger'
p182
g87
sS'Anselm Feuerbach'
p183
g3
sS'Giacomo Ceruti'
p184
g21
sS'Scipione Pulzone'
p185
g15
sS'Charles-Antoine Coypel'
p186
g39
sS'Albert Bierstadt'
p187
g79
sS'Michelangelo Pistoletto'
p188
g11
sS'Auguste Preault'
p189
g112
sS'Pierre-Athanase Chauvin'
p190
g3
sS'Abraham Hendrickz. van Beyeren'
p191
g21
sS'Jules Olitski'
p192
g64
sS'Ilya Bolotowsky'
p193
S'Neo-Plasticism'
p194
sS'Jules-Eugene Lenepveu'
p195
g3
sS"Leon Augustin L'hermitte"
p196
g17
sS'Antonio da Fabriano'
p197
g9
sS'Baldassare Estense'
p198
g9
sS'George McNeil'
p199
g64
sS'Thomas Wyck'
p200
g21
sS'Charles Emile Jacque'
p201
g127
sS'Corneille de Lyon'
p202
g5
sS'Jusepe de Ribera'
p203
g21
sS'Jannis Kounellis'
p204
g11
sS'Jack Bush'
p205
g64
sS'Clemente da Urbino'
p206
g9
sS'Natalia Goncharova'
p207
g121
sS'Fede Galizia'
p208
g21
sS'Pieter Bruegel the Elder'
p209
g5
sS'Paul Desire Trouillebert'
p210
g127
sS'Camille Flers'
p211
g127
sS'Utagawa Kuniyoshi'
p212
g37
sS'Nicolas Tournier'
p213
g21
sS'Carolus-Duran'
p214
g52
sS'Charles Cottet'
p215
g17
sS'Pisanello'
p216
g9
sS'Jules Pascin'
p217
g54
sS'Francois Flameng'
p218
g52
sS'Francesco Bonsignori'
p219
g9
sS'David Loggan'
p220
g21
sS'Martin Drolling'
p221
g52
sS'Israhel van Meckenem'
p222
g5
sS'Yves Tanguy'
p223
g58
sS'Alexandre Cabanel'
p224
g52
sS'Kosmas Damian Asam'
p225
g21
sS'Jules Jacques Veyrassat'
p226
g127
sS'Jean Gorin'
p227
g194
sS'Giusto Le Court'
p228
g21
sS'Daniele da Volterra'
p229
g87
sS'Frantz Charlet'
p230
g13
sS'Pieter de Hooch'
p231
g21
sS'Willem van Aelst'
p232
g21
sS'Niccolo Roccatagliata'
p233
g21
sS'Mario Merz'
p234
g11
sS'Andrea di Orcagna'
p235
S'Byzantine Art'
p236
sS'Giovanni Battista Piranesi'
p237
g3
sS'Lorenzo Maitani'
p238
g82
sS'Anthony Green'
p239
g98
sS'Master of the Saint Ursula Legend'
p240
g5
sS'Isaac Soyer'
p241
g70
sS'Benjamin Gerritsz. Cuyp'
p242
g21
sS'Antonio Tempesta'
p243
g21
sS'George Tooker'
p244
g118
sS'Clodion'
p245
g39
sS'Juan de Zurbaran'
p246
g21
sS'Jean Fouquet'
p247
g9
sS'Johan Stephen von Calcar'
p248
g5
sS'Hans Speckaert'
p249
g87
sS'Sanford Robinson Gifford'
p250
g79
sS'Caspar David Friedrich'
p251
g112
sS'Joos van Wassenhove'
p252
g5
sS'Jacob Duck'
p253
g21
sS'Charles Flipart'
p254
g39
sS'Adriaen Pietersz. van de Venne'
p255
g21
sS'Frank Duveneck'
p256
g17
sS'Arthur Lismer'
p257
S'Group Of Seven'
p258
sS'Andrea Schiavone'
p259
g87
sS'Alexis Grimou'
p260
g21
sS'Esaias Boursse'
p261
g21
sS'Jan Vonck'
p262
g21
sS'Pieter de Bloot'
p263
g21
sS'Gregorio Prestopino'
p264
g70
sS'Jane Freilicher'
p265
g98
sS'Giuseppe Torretti'
p266
g21
sS"Pietro di Giovanni d'Ambrogio"
p267
g9
sS'Simon Guillain'
p268
g21
sS'Robert Bechtle'
p269
S'Photorealism'
p270
sS'Nardo di Cione'
p271
g236
sS'Stefano della Bella'
p272
g21
sS'Edward Henry Potthast'
p273
g13
sS'Herman Nauwincx'
p274
g21
sS'John Heartfield'
p275
S'Dada'
p276
sS'Odilon Redon'
p277
g24
sS'Pierre Puget'
p278
g21
sS'Pietro Bernini'
p279
g87
sS'Dorothea Lange'
p280
g70
sS'Thomas Girtin'
p281
g112
sS'Francois Morellet'
p282
S'Op Art'
p283
sS'Gaspard Dughet'
p284
g21
sS'Michele Giambono'
p285
g9
sS'Andrea Appiani'
p286
g3
sS'Alexander Munro'
p287
g42
sS'Michele Pace'
p288
g21
sS'Francesco Botticini'
p289
g9
sS'Francesco Galli Bibiena'
p290
g21
sS'Francesco Maltese'
p291
g21
sS'Pietro Francavilla'
p292
g87
sS'Francois de Nome'
p293
g21
sS'Francisco de Goya'
p294
g112
sS'Lionel Fitzgerald'
p295
g258
sS'Saint Cecilia Master'
p296
g236
sS'Charles-Francois Daubigny'
p297
g127
sS'Master of the Khanenko Adoration'
p298
g5
sS'Julian Alden Weir'
p299
g90
sS'Elizabeth Berdann'
p300
g98
sS'Gustave Caillebotte'
p301
g13
sS'Rocco Marconi'
p302
g15
sS'Marcus Gheeraerts the Younger'
p303
g21
sS'Max Klinger'
p304
g24
sS'Michele Pannonio'
p305
g9
sS'James McNeill Whistler'
p306
g90
sS'Pietro Torrigiano'
p307
g15
sS'Paul Jamin'
p308
g52
sS'Giampietrino'
p309
g15
sS'Piero di Niccolo Lamberti'
p310
g9
sS'Petrus Christus'
p311
g5
sS'Otto Marseus van Schrieck'
p312
g21
sS'Gentile da Fabriano'
p313
g82
sS'Adolphe William Bouguereau'
p314
g52
sS'Choensai Eishin'
p315
g37
sS'Meret Oppenheim'
p316
g58
sS'Pieter Lastman'
p317
g21
sS'Christoffel Jegher'
p318
g21
sS'Juan Antonio Escalante'
p319
g21
sS'Domenichino'
p320
g21
sS'Kerstiaen de Keuninck'
p321
g21
sS'Benvenuto di Giovanni'
p322
g9
sS'Antonio Carracci'
p323
g21
sS'Peter Vischer the Elder'
p324
g5
sS'Carlo Dolci'
p325
g21
sS'Robert Campin'
p326
g5
sS'Francesco da Sangallo'
p327
g15
sS'Nicolaes Lachtropius'
p328
g21
sS'Brendan Neiland'
p329
g270
sS'Carlos Schwabe'
p330
g24
sS'Jonathan Richardson I'
p331
g21
sS'Raoul Dufy'
p332
g68
sS'Antonio Corradini'
p333
g39
sS'Robert de Niro Sr.'
p334
g64
sS'Jean Cousin the Elder'
p335
g15
sS'Stanislas Lepine'
p336
g13
sS'Gillis Rombouts'
p337
g21
sS'David Des Granges'
p338
g21
sS'Childe Hassam'
p339
g13
sS'Luis Paret y Alcazar'
p340
g39
sS'Antonio Molinari'
p341
g21
sS'Delphin Enjolras'
p342
g52
sS'Giovanni di Francesco'
p343
g9
sS'Georges Lemmen'
p344
S'Pointillism'
p345
sS'Renato Guttuso'
p346
g54
sS'Hans Thoma'
p347
g24
sS'John Quidor'
p348
g112
sS'Lilla Cabot Perry'
p349
g13
sS'Antoine Rivalz'
p350
g21
sS'Jean Jouvenet'
p351
g21
sS'Lawrence Poons'
p352
g283
sS'Karl Briullov'
p353
g112
sS'Xavier Martinez'
p354
g90
sS'Klaes Molenaer'
p355
g21
sS'Paul Signac'
p356
g345
sS'Jan Wildens'
p357
g21
sS'Lucy Madox Brown'
p358
g42
sS'Cassandre'
p359
g74
sS'Erik Werenskiold'
p360
g17
sS'Nicolas de Largilliere'
p361
g39
sS'Michelino da Besozzo'
p362
g9
sS'Ralph Peacock'
p363
S'Victorian Classicism'
p364
sS'John Francis Murphy'
p365
g90
sS'Vicente Salvador Gomez'
p366
g21
sS'Solomon Alexander Hart'
p367
g3
sS'Jean-Honore Fragonard'
p368
g39
sS'Karl Schmidt-Rottluff'
p369
g54
sS'Robert Le Lorrain'
p370
g21
sS'Jan Pynas'
p371
g21
sS'James Smetham'
p372
g42
sS'Lynn Donoghue'
p373
g98
sS'Tullio Lombardo'
p374
g15
sS'Thomas Anshutz'
p375
g17
sS'Domenico Beccafumi'
p376
g87
sS'Jacopo Bellini'
p377
g82
sS'Agostino di Duccio'
p378
g9
sS'Jean-Baptiste Greuze'
p379
g39
sS'Charmion von Wiegand'
p380
g194
sS'Andries Stock'
p381
g21
sS'Giovanni Boccati'
p382
g9
sS'Melchiore Caffa'
p383
g21
sS'Christobal Ramirez de Arellano'
p384
g21
sS'Domenico Veneziano'
p385
g9
sS'Peter de Witte'
p386
g87
sS'Jacob Marrel'
p387
g21
sS'Pablo de San Leocadio'
p388
g9
sS'Jean-Baptiste Monnoyer'
p389
g21
sS'Albert Marquet'
p390
g68
sS'Jack Beal'
p391
g98
sS'Lavinia Fontana'
p392
g87
sS'Giovanni Dalmata'
p393
g9
sS'Martin Desjardins'
p394
g21
sS'Rosa Bonheur'
p395
g17
sS'Thomas Wilmer Dewing'
p396
g90
sS'Walter Richard Sickert'
p397
g147
sS'Felix Bracquemond'
p398
S'Art Nouveau'
p399
sS'Jean-Baptiste Oudry'
p400
g21
sS'Henri Mauperche'
p401
g21
sS'Taddeo di Bartolo'
p402
g82
sS'Utagawa Kunisada'
p403
g37
sS'Rodolfo Opazo Bernales'
p404
g58
sS'Denys Calvaert'
p405
g5
sS'Frederic Bazille'
p406
g13
sS'Adam Willaerts'
p407
g21
sS'Giovanni Antonio Amadeo'
p408
g9
sS'Egon Schiele'
p409
g54
sS'Audrey Flack'
p410
g270
sS'Jan Jansz. van de Velde III'
p411
g21
sS'Willard Leroy Metcalf'
p412
g13
sS'Jan van Mieris'
p413
g21
sS'Michele da Verona'
p414
g15
sS'Rembrandt Peale'
p415
g3
sS'Ben Schonzeit'
p416
g270
sS'Bergognone'
p417
g15
sS'Giacomo Cozzarelli'
p418
g9
sS'Giambattista Foggini'
p419
g21
sS'Francisco de Zurbaran'
p420
g21
sS'Franklin Carmichael'
p421
g258
sS'Jules-Alexis Muenier'
p422
g52
sS'Allan Ramsay'
p423
g39
sS'Don Eddy'
p424
g270
sS'Hippolyte Petitjean'
p425
g345
sS'Isaac Sailmaker'
p426
g21
sS'George Carline'
p427
g17
sS'Charles Baugniet'
p428
g52
sS'Giorgio Ghisi'
p429
g87
sS'Valentine Cameron Prinsep'
p430
g42
sS'Niclaus of Haguenau'
p431
g5
sS'Henri de Toulouse-Lautrec'
p432
g132
sS'Sylvie Fleury'
p433
g176
sS'Martin de Vos'
p434
g87
sS'Giovanni Fattori'
p435
g17
sS'Maxfield Parrish'
p436
g19
sS'Paulus Potter'
p437
g21
sS'Victor Brauner'
p438
g58
sS'Emily Mary Osborn'
p439
g42
sS'Crispin van den Broeck'
p440
g5
sS'Jean Tassel'
p441
g21
sS'Jakob Christof Le Blon'
p442
g21
sS'Carlo Saraceni'
p443
g21
sS'Cornelis de Vos'
p444
g21
sS'Giovanni di Paolo'
p445
g9
sS'Properzia de Rossi'
p446
g15
sS'Dale Nichols'
p447
g30
sS'Lawrence Calcagno'
p448
g64
sS'Elsie Driggs'
p449
S'Precisionism'
p450
sS'Girolamo di Benvenuto'
p451
g15
sS'Ciro Ferri'
p452
g21
sS'Theo van Rysselberghe'
p453
g345
sS'Alessandro Tiarini'
p454
g21
sS'Jacob Lawrence'
p455
g154
sS'John Souch'
p456
g21
sS'Georges de La Tour'
p457
g21
sS'Thomas Seddon'
p458
g42
sS'Floris van Schooten'
p459
g21
sS'Robert Scott Duncanson'
p460
g79
sS'John Everett Millais'
p461
g42
sS'Jan van Amstel'
p462
g5
sS'Pieter Bruegel the Younger'
p463
g5
sS'Georges Lacombe'
p464
S'Nabis'
p465
sS'Jean-Baptiste de Champaigne'
p466
g21
sS'Heinrich Campendonk'
p467
g54
sS'Paulus Pontius'
p468
g21
sS'R.B. Kitaj'
p469
g176
sS'Michael Wolgemut'
p470
g5
sS'Antonio Rizzo'
p471
g9
sS'Charles Demuth'
p472
g450
sS'Benedetto Bonfigli'
p473
g9
sS'Gerard Hoet'
p474
g21
sS'Esteban Marquez de Velasco'
p475
g21
sS'Aubin Vouet'
p476
g21
sS'Hans von Aachen'
p477
g87
sS'Francesco Beccaruzzi'
p478
g15
sS'Robert Gwathmey'
p479
g70
sS'Giulio Cesare Procaccini'
p480
g21
sS'Walter Crane'
p481
g19
sS'George Wesley Bellows'
p482
g26
sS'Patrick Caulfield'
p483
g176
sS'Oscar Dominguez'
p484
g58
sS'Simon Verelst'
p485
g21
sS'Red Grooms'
p486
g176
sS'Aubrey Beardsley'
p487
g19
sS'Gerard David'
p488
g5
sS'Giovanni Battista Crosato'
p489
g21
sS'Marvin Cone'
p490
g30
sS'Claes Jansz. Visscher'
p491
g21
sS'Lambert Sustris'
p492
g87
sS'Giovanni Agostino da Lodi'
p493
g9
sS'Wyndham Lewis'
p494
g147
sS'William Holman Hunt'
p495
g42
sS'Edmund Lewandowski'
p496
g450
sS'Master LCz'
p497
g5
sS'Ivan Mestrovic'
p498
g54
sS'Bernardino Mei'
p499
g21
sS'Giovanni Bernardo Carbone'
p500
g21
sS'Stefano Maderno'
p501
g87
sS'Vincenzo Foppa'
p502
g9
sS'Dirck van der Lisse'
p503
g21
sS'Vincenzo Carducci'
p504
g21
sS'Aaron Harry Gorson'
p505
g90
sS'Herman van Swanevelt'
p506
g21
sS'Marie Anne Gerard Fragonard'
p507
g39
sS'Guido Mazzoni'
p508
g9
sS'Catherine Murphy'
p509
g98
sS'Jean-Pierre Cortot'
p510
g52
sS'Aegidius Sadeler II'
p511
g21
sS'Sven Dalsgaard'
p512
g58
sS'Edmund Charles Tarbell'
p513
g13
sS'Nakai Yoshitaki'
p514
g37
sS'Claude-Emile Schuffenecker'
p515
g132
sS'Giuliano Finelli'
p516
g21
sS'John Frederick Kensett'
p517
g79
sS'Emile Antoine Bourdelle'
p518
g54
sS'Johan Barthold Jongkind'
p519
g13
sS'Benozzo Gozzoli'
p520
g9
sS'Angelica Kauffmann'
p521
g3
sS'Hubert Robert'
p522
g39
sS'Master of the Karlsruhe Passion'
p523
g5
sS'Martin Ryckaert'
p524
g21
sS'Wolf Huber'
p525
g5
sS'Lucas Vorsterman the Elder'
p526
g21
sS'Neri di Bicci'
p527
g9
sS'Thomas Prichard Rossiter'
p528
g79
sS'William Aikman'
p529
g21
sS'Lazzaro Bastiani'
p530
g9
sS'Adam Pynacker'
p531
g21
sS'Amico Aspertini'
p532
g87
sS'Katsukawa Shunso'
p533
g37
sS'C. Coles Phillips'
p534
g19
sS'Mark Innerst'
p535
g98
sS'Jules Breton'
p536
g17
sS"Andrea di Vanni d'Andrea"
p537
g236
sS'Jacob van Loo'
p538
g21
sS'Rene Fremin'
p539
g21
sS'Marietta Robusti'
p540
g87
sS'Emile-Jacques Ruhlmann'
p541
g74
sS'Carlo Cignani'
p542
g21
sS'Louis Valtat'
p543
g68
sS'Wilhelm Schubert van Ehrenberg'
p544
g21
sS'Sebastien Stoskopff'
p545
g21
sS'Jacques de Gheyn II'
p546
g21
sS'Agostino di Giovanni'
p547
g82
sS'Matteo Civitale'
p548
g9
sS'Egid Quirin Asam'
p549
g21
sS'Ferdinando Galli Bibiena'
p550
g21
sS'Gaspard Marsy II'
p551
g21
sS'Larry Rivers'
p552
g176
sS'Carl Friedrich Lessing'
p553
g112
sS'Elizabeth Eleanor Siddal'
p554
g42
sS'Sir Nathaniel Bacon'
p555
g21
sS'Camillo Mariani'
p556
g87
sS'John Michael Wright'
p557
g21
sS'Charles Camoin'
p558
g68
sS'Vladimir Lukich Borovikovskii'
p559
g39
sS'Il Sodoma'
p560
g15
sS'Arnolfo di Cambio'
p561
g82
sS'Kenyon Cox'
p562
g52
sS'Peter Max'
p563
g176
sS'Mel Ramos'
p564
g176
sS'Theodore Wendel'
p565
g13
sS'Joachim Patinir'
p566
g5
sS'Philip Wilson Steer'
p567
g13
sS'Giuseppe Cades'
p568
g21
sS'Bernardino Campi'
p569
g87
sS'Marinus van Reymerswaele'
p570
g5
sS'Daniel Hopfer'
p571
g5
sS'Maxime Maufra'
p572
g13
sS'Arthur Rackham'
p573
g19
sS'Francesco Maria Schiaffino'
p574
g39
sS'Antoine Caron'
p575
g87
sS'Zoan Andrea'
p576
g9
sS'James Barry'
p577
g3
sS'Andrea Sacchi'
p578
g21
sS'Ferdinand Bol'
p579
g21
sS'Gherardo di Giovanni'
p580
g9
sS'Charles Wilbert White'
p581
g70
sS'John Flaxman'
p582
g3
sS'William Gropper'
p583
g70
sS'John Ferren'
p584
g64
sS'Jean Goujon'
p585
g87
sS'Reginald Marsh'
p586
g70
sS'Edouard Manet'
p587
g17
sS'William Rush'
p588
g3
sS'Jacopo di Cione'
p589
g236
sS'Jacques de Gheyn'
p590
g5
sS'Justus Sustermans'
p591
g21
sS'Leonhard Beck'
p592
g5
sS'Juan Simon Gutierrez'
p593
g21
sS'Augustin Theodule Ribot'
p594
g17
sS'Charles Jervas'
p595
g21
sS'Noel Coypel'
p596
g21
sS'Alessandro Algardi'
p597
g21
sS'Louis Marcoussis'
p598
g121
sS'Sir Anthony Van Dyck'
p599
g21
sS'Philip Galle'
p600
g5
sS'Eugene Delacroix'
p601
g112
sS'Theodore Rombouts'
p602
g21
sS'Michael Lukas Leopold Willmann'
p603
g87
sS'Blas de Ledesma'
p604
g21
sS'Richard Thomas Davis'
p605
g98
sS'Franciscus Gijsbrechts'
p606
g21
sS'Matthaus Merian the Younger'
p607
g21
sS'Luisa Roldan'
p608
g21
sS'Franz Xavier Winterhalter'
p609
g52
sS'Francoise Duparc'
p610
g39
sS'Theophile Alexandre Steinlen'
p611
g399
sS'Francesco Zuccarelli'
p612
g39
sS'Jean-Joseph Weerts'
p613
g52
sS'Jo Baer'
p614
g7
sS'Jean Baptiste Pillement'
p615
g39
sS'Jean-Baptiste Corneille'
p616
g21
sS'George Frederic Watts'
p617
g24
sS'Theodore Clement Steele'
p618
g13
sS'Luca Signorelli'
p619
g15
sS'Willem Vrelant'
p620
g5
sS'Lucas van Uden'
p621
g21
sS'Camillo Boccaccino'
p622
g9
sS'Francesco Guardi'
p623
g39
sS'Cornelis Floris'
p624
g5
sS'Giovan Battista Langetti'
p625
g21
sS'Frederick Sandys'
p626
g42
sS'Cristoforo Mantegazza'
p627
g9
sS'Mark Tobey'
p628
g64
sS'Giovanni Bellini'
p629
g15
sS'Giovanni da Milano'
p630
g82
sS'Cheryl Laemmle'
p631
g24
sS'Per Kirkeby'
p632
g54
sS'Charles Warren Eaton'
p633
g90
sS'Gino Severini'
p634
g121
sS'Dame Laura Knight'
p635
g13
sS'Master of Female Half-Lengths'
p636
g5
sS'Richard Earl Thompson'
p637
g13
sS"Pierre-Paul Prud'hon"
p638
g3
sS'Kunimasa'
p639
g37
sS'John Hayls'
p640
g21
sS'Giovanni Battista Cipriani'
p641
g3
sS'Andries Both'
p642
g21
sS'Louis-Francois Roubiliac'
p643
g39
sS'Ichieisai Yoshitsuya I'
p644
g37
sS'Giorgio Vasari'
p645
g87
sS'Esteban March'
p646
g21
sS'Eileen Agar'
p647
g58
sS'Francesco Benaglio'
p648
g9
sS'Helen M. Turner'
p649
g13
sS'John Steuart Curry'
p650
g30
sS'Walter Frederick Osborne'
p651
g13
sS'John Hoppner'
p652
g3
sS'Gertrude Kasebier'
p653
g90
sS'John Henry Fuseli'
p654
g112
sS'Bernardo Daddi'
p655
g9
sS'Abbott Fuller Graves'
p656
g13
sS'Gerhard Richter'
p657
g176
sS'Francesco Marmitta'
p658
g9
sS'Maurice Denis'
p659
g465
sS'Martin Rico y Ortega'
p660
g13
sS'Masaccio'
p661
g9
sS'Marco Marziale'
p662
g9
sS'Ercole Procaccini il Giovane'
p663
g21
sS'William Scott'
p664
g64
sS'Tino da Camaino'
p665
g82
sS'Bartolomeo Passerotti'
p666
g87
sS'Jan Bruegel the Younger'
p667
g21
sS'Hans Leonhard Schaufelein'
p668
g5
sS'Aert de Gelder'
p669
g21
sS'Benedetto Diana'
p670
g15
sS'Pieter Cornelisz. Kunst'
p671
g5
sS'Georg David Matthieu'
p672
g39
sS'Pieter de Molyn'
p673
g21
sS'Barbara Longhi'
p674
g15
sS'Luis Borrassa'
p675
g82
sS'Christopher Paudiss'
p676
g21
sS'Giovanni Santi'
p677
g9
sS'Marie-Victoire Lemoine'
p678
g3
sS'Peter von Cornelius'
p679
g17
sS'Luigi Vanvitelli'
p680
g39
sS'Jacob de Backer'
p681
g5
sS'Sassetta'
p682
g9
sS'Bernardino Jacopi Butinone'
p683
g9
sS'Tobias Verhaecht'
p684
g21
sS'Edvard Munch'
p685
g24
sS'Antonio Balestra'
p686
g21
sS'Jose de Madrazo y Agudo'
p687
g3
sS'Giuliano Bugiardini'
p688
g15
sS'Jan Adriaensz. van Staveren'
p689
g21
sS'Joe Tilson'
p690
g176
sS'Louis-Marin Bonnet'
p691
g39
sS'Jan Sanders van Hemessen'
p692
g87
sS'Carl Blechen'
p693
g112
sS'Pedro de Campana'
p694
g5
sS'Adriaen van Ostade'
p695
g21
sS'Pierre Le Gros I'
p696
g21
sS'Hermann Weyer'
p697
g21
sS"Niccolo Dell'Arca"
p698
g9
sS'Louis Welden Hawkins'
p699
g24
sS'Pieter Mulier'
p700
g21
sS'Arthur Parton'
p701
g13
sS'Emanuel Gottlieb Leutze'
p702
g112
sS'Christopher Pratt'
p703
g98
sS'Edward Willis Redfield'
p704
g13
sS'Bernardo Strozzi'
p705
g21
sS'Jacques Linard'
p706
g21
sS'Masters of the Fontainebleau'
p707
g87
sS'Artemisia Gentileschi'
p708
g21
sS'Giovanni Martinelli'
p709
g21
sS'Jean-Louis Hamon'
p710
g52
sS'Master of 1419'
p711
g9
sS'Michiel van Musscher'
p712
g21
sS'Bartolommeo Carducci'
p713
g21
sS'Ivan Bilibin'
p714
g19
sS'John William Godward'
p715
g364
sS"Sil'vestr Feodosievich Shchedrin"
p716
g112
sS'Alessandro Marchesini'
p717
g21
sS'Meta Warrick Fuller'
p718
g154
sS'Master of the Saint Lucy Legend'
p719
g5
sS'David de Coninck'
p720
g21
sS'Erich Heckel'
p721
g54
sS'Gerrit van Honthorst'
p722
g21
sS'Bernardo Castello'
p723
g21
sS'Puccio Capanna'
p724
g82
sS'Adolphe-Leon Willette'
p725
g399
sS'Pieter de Ring'
p726
g21
sS'Pellegrino Tibaldi'
p727
g87
sS'Nicolaus Gerhaert'
p728
g5
sS'Jean-Louis-Ernest Meissonier'
p729
g52
sS'Andrea del Brescianino'
p730
g15
sS'Charles Edward Boutibonne'
p731
g52
sS'Charles W. Knapp'
p732
g79
sS'Cornelis Bega'
p733
g21
sS'Cesare da Sesto'
p734
g15
sS'Giovanni Bilivert'
p735
g21
sS'Theodor von Holst'
p736
g112
sS'Jean Pucelle'
p737
g82
sS'Jan Steen'
p738
g21
sS'Thomas Doughty'
p739
g79
sS'Stanhope Alexander Forbes'
p740
g17
sS"Pierre Jean David d'Angers"
p741
g112
sS'Peeter Neeffs I'
p742
g21
sS'Hans Sebald Beham'
p743
g5
sS'Pierre-Narcisse Guerin'
p744
g3
sS'Willem Buytewech'
p745
g21
sS'Granville Redmond'
p746
g90
sS'Pierre Mignard'
p747
g21
sS'Dirck van Santvoort'
p748
g21
sS'Bruce Crane'
p749
g90
sS'Dirk Vellert'
p750
g5
sS'Zanobi Strozzi'
p751
g9
sS'Louis Ritman'
p752
g13
sS'Hans Bellmer'
p753
g58
sS'Lancelot Blondeel'
p754
g5
sS'Hubert van Eyck'
p755
g5
sS'Gilles Guerin'
p756
g21
sS'Konstantin Somov'
p757
g24
sS'Francis Barlow'
p758
g21
sS'Piero Pollaiolo'
p759
g9
sS'Luis Tristan de Escamilla'
p760
g21
sS'Pieter Duyfhuysen'
p761
g21
sS'Gaspar Becerra'
p762
g87
sS'Louis Paul Dessar'
p763
g90
sS'Master of the Rebel Angels'
p764
g82
sS'Hendrick Terbrugghen'
p765
g21
sS'Giovanni Pisano'
p766
g82
sS'Gerret Willemsz. Heda'
p767
g21
sS'Hendrik van der Borcht'
p768
g21
sS'Cornelis de Heem'
p769
g21
sS'Edward Julius Detmold'
p770
g19
sS'Marcantonio Raimondi'
p771
g15
sS'Charles Dana Gibson'
p772
g19
sS'Ilario Spolverini'
p773
g21
sS'Xavier Mellery'
p774
g24
sS'Werner van den Valckert'
p775
g21
sS'Jasper Francis Cropsey'
p776
g79
sS'Paul Sandby'
p777
g39
sS'Giovanni Paolo Pannini'
p778
g3
sS'Giovanni Francesco Romanelli'
p779
g21
sS'Nicolas Froment'
p780
g9
sS'Adolf von Menzel'
p781
g17
sS'Francis A. Silva'
p782
g79
sS'Georges Braque'
p783
g68
sS'George Luks'
p784
g26
sS'Giovanni dal Ponte'
p785
g9
sS'Kunikazu'
p786
g37
sS'Michael Pacher'
p787
g5
sS'Nicolas Coustou'
p788
g21
sS'Lorenzo di Alessandro da Sanseverino'
p789
g9
sS'Aristide Maillol'
p790
g465
sS'Vincenzo di Catena'
p791
g15
sS'Allegretto Nuzi'
p792
g82
sS'Othon Friesz'
p793
g68
sS'Sir Frank Dicksee'
p794
g42
sS'Richard Estes'
p795
g270
sS'Josse Lieferinxe'
p796
g5
sS'Cecco del Caravaggio'
p797
g21
sS'Johann Baptist Lampi the Elder'
p798
g39
sS'Master of the Joseph Legend'
p799
g5
sS'Joseph Plepp'
p800
g21
sS'Luis Juarez'
p801
g87
sS'Robert Moskowitz'
p802
g7
sS'Giuseppe Bazzani'
p803
g21
sS'Nicolas Mignard'
p804
g21
sS'Adriaen van Utrecht'
p805
g21
sS'Boccaccio Boccaccino'
p806
g9
sS'John Collier'
p807
g364
sS'Nicolas Neufchatel'
p808
g5
sS'Claus Sluter'
p809
g82
sS'Tony Smith'
p810
g7
sS'John Rogers Cox'
p811
g30
sS'Peter Wtewael'
p812
g21
sS'Pierre Patel'
p813
g21
sS'Hans Hofmann'
p814
g64
sS'Pietro da Rimini'
p815
g236
sS'Lucas Franchoys the Younger'
p816
g21
sS'Auguste Glaize'
p817
g52
sS'Leon Frederic'
p818
g24
sS'Masolino da Panicale'
p819
g9
sS'Titian'
p820
g15
sS'Ludwig Deutsch'
p821
g52
sS'Salomon de Bray'
p822
g21
sS'Cristoforo Stati'
p823
g21
sS'Jacobello Del Fiore'
p824
g9
sS'Theodore Butler'
p825
g13
sS'George Loring Brown'
p826
g79
sS'Corneille Van Cleve'
p827
g21
sS'Joaquin Sorolla y Bastida'
p828
g17
sS'Claude Deruet'
p829
g21
sS'Robert Adam'
p830
g3
sS'Thomas Stothard'
p831
g3
sS'Paul Chabas'
p832
g52
sS'Marisa Merz'
p833
g11
sS'Master of Pratovecchio'
p834
g9
sS'Harriet Backer'
p835
g13
sS'Giorgio de Chirico'
p836
g58
sS'Johann Zoffany'
p837
g3
sS'Master of the Tibertine Sibyl'
p838
g5
sS'Jan van Scorel'
p839
g5
sS'Solomon Joseph Solomon'
p840
g364
sS'Pedro Sanchez'
p841
g9
sS'Spencer Gore'
p842
g147
sS'Benvenuto Cellini'
p843
g87
sS'Emanuel de Witte'
p844
g21
sS'Carel Willink'
p845
g118
sS'Marie-Guillemine Benoist'
p846
g3
sS'Frederik van Valckenborch'
p847
g5
sS'Aaron Siskind'
p848
g64
sS'John Trumbull'
p849
g3
sS'John White Alexander'
p850
g24
sS'Pierre Brebiette'
p851
g21
sS'Andre Derain'
p852
g68
sS'Gregorio Guglielmi'
p853
g21
sS'El Greco'
p854
g87
sS'Abraham van den Tempel'
p855
g21
sS'Arnold Bocklin'
p856
g24
sS'Andrea Pisano'
p857
g82
sS'Pontormo'
p858
g87
sS'Francois Duquesnoy'
p859
g21
sS'Mikhail Vrubel'
p860
g24
sS'John Duncan'
p861
g24
sS'Richard Phillips'
p862
g270
sS'Simon de Vlieger'
p863
g21
sS'Claude-Nicolas Ledoux'
p864
g3
sS'Cornelius Droochsloot'
p865
g21
sS'Josef Danhauser'
p866
g17
sS'Giovanni Marchiori'
p867
g39
sS'Rachel Ruysch'
p868
g21
sS'Rembrandt van Rijn'
p869
g21
sS'Romare Bearden'
p870
g154
sS'Hendrik Cornelisz van der Vliet'
p871
g21
sS'Ben Foster'
p872
g90
sS'Timoteo Viti'
p873
g15
sS'Cleve Gray'
p874
g64
sS'Lorenzo di Credi'
p875
g15
sS'Francesco Bassano'
p876
g87
sS'John Wollaston'
p877
g39
sS'Lowell Birge Harrison'
p878
g90
sS'John Koch'
p879
g98
sS'Germain Pilon'
p880
g87
sS'Juan Bautista Martinez del Mazo'
p881
g21
sS'Hendrik de Clerck'
p882
g21
sS'Derek Boshier'
p883
g176
sS'Jean-Baptiste-Simeon Chardin'
p884
g39
sS'Jacques-Louis David'
p885
g3
sS'Valerio Castello'
p886
g21
sS'Alfred Kubin'
p887
g54
sS'Israel Silvestre the Younger'
p888
g21
sS'James Bama'
p889
g98
sS"Maria A'Becket"
p890
g90
sS"Ercole de'Roberti"
p891
g9
sS'Gerard van Opstal'
p892
g21
sS'Abraham Diepraam'
p893
g21
sS'Peter Paul Rubens'
p894
g21
sS'Vincenzo Danti'
p895
g87
sS'Mary Cassatt'
p896
g13
sS'Eglon Hendrick van der Neer'
p897
g21
sS'Arthur Frank Mathews'
p898
g90
sS'Dante Gabriel Rossetti'
p899
g42
sS'Giovanni Antonio Boltraffio'
p900
g15
sS'Paul Cezanne'
p901
g132
sS'Giacomo Antonio Ponsonelli'
p902
g21
sS'Elihu Vedder'
p903
g24
sS'Perle Fine'
p904
g64
sS'Georg Schrimpf'
p905
g54
sS'Alexej Harlamoff'
p906
g52
sS'Julien Dupre'
p907
g17
sS'James Van Der Zee'
p908
g154
sS'Bartolome Bermejo'
p909
g9
sS'Cosimo Fanzago'
p910
g21
sS'Michael Ancher'
p911
g13
sS'John Linnell'
p912
g112
sS'Jean-Alexandre-Joseph Falguiere'
p913
g52
sS'Kenneth Noland'
p914
g283
sS'Michel Sittow'
p915
g5
sS'Ibram Lassaw'
p916
g64
sS'Corneille Huysmans'
p917
g21
sS'Willem van Tetrode'
p918
g87
sS'Henry Ward Ranger'
p919
g90
sS'Fra Guglielmo'
p920
g82
sS'Paul Otero'
p921
g98
sS'Gerard Seghers'
p922
g21
sS'Pieter Aertsen'
p923
g5
sS'Tom Roberts'
p924
g13
sS'Johan Christian Dahl'
p925
g112
sS'Louis de Boullogne'
p926
g21
sS'Gaspar van Wittel'
p927
g21
sS'Danese Cattaneo'
p928
g87
sS'Hishikawa Moronobu'
p929
g37
sS'Master of the Franciscan Crucifixes'
p930
g82
sS'Louis Betts'
p931
g13
sS'Bernardo Bellotto'
p932
g39
sS'Rosalba Carriera'
p933
g39
sS'Jacob van Hulsdonck'
p934
g21
sS'Giovanni Angelo Montorsoli'
p935
g15
sS'Luis Dalmau'
p936
g9
sS'Alberto Savinio'
p937
g58
sS'Egbert van Heemskerk II'
p938
g21
sS'Angelo Caroselli'
p939
g21
sS'Gustave Brion'
p940
g17
sS'William Morris Hunt'
p941
g90
sS'Henri Le Fauconnier'
p942
g121
sS'Giuseppe Maria Crespi'
p943
g21
sS'Gillis van Valckenborch'
p944
g5
sS'Keisai Eisen'
p945
g37
sS'Tanzio da Varallo'
p946
g21
sS'Lo Scheggia'
p947
g9
sS'Jacob van Ruisdael'
p948
g21
sS'Robert Henri'
p949
g26
sS'Frans Francken I'
p950
g5
sS'George Gardner Symons'
p951
g13
sS'Agostino Carracci'
p952
g21
sS'Daniel Schultz'
p953
g21
sS'Nishimura Shigenaga'
p954
g37
sS"Margaritone d'Arezzo"
p955
g236
sS'Simone Cantarini'
p956
g21
sS'Willem Claesz. Heda'
p957
g21
sS'Franz von Defregger'
p958
g52
sS'Frans Floris'
p959
g5
sS'Dirk Hals'
p960
g21
sS'Pietro Perugino'
p961
g9
sS'Giuseppe Arcimboldo'
p962
g87
sS'Mino da Fiesole'
p963
g9
sS'William Dyce'
p964
g17
sS'Enguerrand Quarton'
p965
g5
sS'Bertoldo di Giovanni'
p966
g9
sS'Boris Margo'
p967
g58
sS'Pietro Paolini'
p968
g21
sS'Jean-Baptiste Joseph Wicar'
p969
g3
sS'Ambrosius Benson'
p970
g5
sS'Francois Gerard'
p971
g3
sS'Sir John Soane'
p972
g3
sS'Charles Bulfinch'
p973
g3
sS'Enrico Donati'
p974
g58
sS'Francesco Vanni'
p975
g21
sS'Nicholas Stone'
p976
g21
sS'Max Liebermann'
p977
g13
sS'Daniel Chester French'
p978
g3
sS'Vrancke van der Stockt'
p979
g5
sS'Ker Xavier Roussel'
p980
g465
sS'Carl Larsson'
p981
g17
sS'Archibald Motley'
p982
g154
sS'Giovanni della Robbia'
p983
g15
sS'Emile Friant'
p984
g17
sS'Robert Cottingham'
p985
g270
sS'Savelli Sperandio'
p986
g9
sS'Georg Flegel'
p987
g21
sS'Domenico Fiasella'
p988
g21
sS'Paul Ranson'
p989
g465
sS'Jacopo Bassano'
p990
g15
sS'Bernardo Rossellino'
p991
g9
sS'Armand Guillaumin'
p992
g13
sS'Rene Magritte'
p993
g58
sS'Lucio Fontana'
p994
g11
sS'Thomas Hart Benton'
p995
g30
sS'Pascal-Adolphe-Jean Dagnan-Bouveret'
p996
g17
sS'Master of the Procession'
p997
g21
sS'Abraham Mignon'
p998
g21
sS'Georges de Feure'
p999
g399
sS'Auguste Bonheur'
p1000
g17
sS'Reinier Nooms'
p1001
g21
sS'Alexandre-Francois Desportes'
p1002
g21
sS'Rita Letendre'
p1003
g64
sS'Christophe-Gabriel Allegrain'
p1004
g39
sS'Joe Jones'
p1005
g70
sS'Benedetto Briosco'
p1006
g9
sS'Lois Mailou Jones'
p1007
g154
sS'Domenico di Bartolo'
p1008
g9
sS'Giuseppe Ceracchi'
p1009
g3
sS'Hyacinthe Rigaud'
p1010
g21
sS'Paul Manship'
p1011
g74
sS'Govert Dircksz Camphuysen'
p1012
g21
sS'Alexander Archipenko'
p1013
g121
sS'Gherardo Starnina'
p1014
g82
sS'Philip Guston'
p1015
g64
sS'Massimo Stanzione'
p1016
g21
sS'Johan Gregor van der Schardt'
p1017
g5
sS'Donato Creti'
p1018
g21
sS'Lorenzo Ghiberti'
p1019
g9
sS'Henri Lehmann'
p1020
g3
sS'Utagawa Yoshitora'
p1021
g37
sS'Frans Cuyck Van Myerop'
p1022
g21
sS'Claes Oldenburg'
p1023
g176
sS'Jan van Goyen'
p1024
g21
sS'Jacob Cornelisz van Oostsanen'
p1025
g5
sS'Bernaert van Orley'
p1026
g5
sS'Pedro Orrente'
p1027
g21
sS'Leigh Behnke'
p1028
g98
sS'Hans Memling'
p1029
g5
sS'Master of the Saint Catherine Legend'
p1030
g5
sS'Perino del Vaga'
p1031
g87
sS'Alfred Leslie'
p1032
g98
sS'Armand Point'
p1033
g24
sS'Joan Valet'
p1034
g21
sS'Cosimo Fancelli'
p1035
g21
sS'Robert White'
p1036
g21
sS'Sigmar Polke'
p1037
g176
sS'Carel Fabritius'
p1038
g21
sS'Hercules Seghers'
p1039
g21
sS'Henri Laurens'
p1040
g121
sS'Barna da Siena'
p1041
g236
sS'Theodoor van Loon'
p1042
g21
sS'Girolamo Mazzola Bedoli'
p1043
g87
sS'Vilmos Huszar'
p1044
g194
sS'John Baeder'
p1045
g270
sS'Hiroshige II'
p1046
g37
sS'Wenceslaus Hollar'
p1047
g21
sS'Liberale da Verona'
p1048
g9
sS'Jacob Epstein'
p1049
g54
sS'Rombout Verhulst'
p1050
g21
sS'Horatio Greenough'
p1051
g3
sS'Pieter Verbeeck'
p1052
g21
sS'Joseph Blackburn'
p1053
g39
sS'Giovanni Maria Benzoni'
p1054
g3
sS'Melozzo da Forli'
p1055
g9
sS'Daniel Huntington'
p1056
g79
sS'Sugimura Jihei'
p1057
g37
sS'Jan Baptist Weenix'
p1058
g21
sS'Polidoro da Caravaggio'
p1059
g87
sS'Pietro Lorenzetti'
p1060
g236
sS'David Hockney'
p1061
g176
sS'Nicholas Krushenick'
p1062
g176
sS'Claudio Coello'
p1063
g21
sS'Jan van Bijlert'
p1064
g21
sS'Bon de Boullogne'
p1065
g21
sS'Katsukawa Shunzan'
p1066
g37
sS'Theobald Chartran'
p1067
g52
sS'Henri Moret'
p1068
g13
sS'Juan Bautista Mayno'
p1069
g21
sS'Gonzales Coques'
p1070
g21
sS'Joseph Nollekens'
p1071
g3
sS'Francesco Antonio del Cherico'
p1072
g9
sS'Giovanni Cariani'
p1073
g15
sS'Inigo Jones'
p1074
g21
sS'Andrea Pozzo'
p1075
g21
sS'Michel Erhardt'
p1076
g5
sS'John Martin'
p1077
g112
sS'O. Louis Guglielmi'
p1078
g118
sS'Jean Metzinger'
p1079
g121
sS'Bartholomeus Breenbergh'
p1080
g21
sS'James Montgomery Flagg'
p1081
g19
sS'John Gibson'
p1082
g3
sS'Charles Allston Collins'
p1083
g42
sS'Jan Frans van Bloemen'
p1084
g21
sS'Philip Evergood'
p1085
g70
sS'Jean-Louis Forain'
p1086
g17
sS'Filippo Parodi'
p1087
g87
sS'Jurgen Ovens'
p1088
g21
sS'Nicola Malinconico'
p1089
g21
sS'Hirosada'
p1090
g37
sS'Ortolano Ferrarese'
p1091
g15
sS'Dorothea Tanning'
p1092
g58
sS'Giovanni Battista Moroni'
p1093
g87
sS'Antoine-Jean Gros'
p1094
g112
sS'Ercole Bazicaluva'
p1095
g21
sS'Lodovico Cigoli'
p1096
g21
sS'Jean Arp'
p1097
g58
sS'Torii Kiyomasu'
p1098
g37
sS'Tommaso Cazzaniga'
p1099
g9
sS'Roger de la Fresnaye'
p1100
g68
sS'Diego Velazquez'
p1101
g21
sS'Cy Twombly'
p1102
g64
sS'Jeronimus Spengler'
p1103
g21
sS'Master of the Retablo of the Reyes Catolicos'
p1104
g9
sS'Charles Landelle'
p1105
g52
sS'Millicent Sowerby'
p1106
g19
sS'John Ruskin'
p1107
g112
sS'Colleen Browning'
p1108
g98
sS'William Van Alen'
p1109
g74
sS'Norman Bel Geddes'
p1110
g74
sS'Jacopo Ligozzi'
p1111
g87
sS'Master of the Castello Nativity'
p1112
g9
sS'Adam Kraft'
p1113
g5
sS'Johann Melchior Dinglinger'
p1114
g21
sS'Martin Schaffner'
p1115
g5
sS'Francois-Joseph Heim'
p1116
g3
sS'Parri Spinelli'
p1117
g9
sS'Gabriel Metsu'
p1118
g21
sS'Maso di Banco'
p1119
g9
sS'Master of the Griselda Legend'
p1120
g9
sS'Christian Krohg'
p1121
g17
sS'Joseph Raffael'
p1122
g98
sS'Robert Reid'
p1123
g13
sS'Alessandro Araldi'
p1124
g15
sS'Charles Harry Eaton'
p1125
g90
sS'Filippo Brunelleschi'
p1126
g9
sS'Dan Flavin'
p1127
g7
sS'Giambologna'
p1128
g87
sS'Maria Blanchard'
p1129
g121
sS'Jacques Villon'
p1130
g121
sS'Charles Edouard Delort'
p1131
g52
sS'Valentin Aleksandrovich Serov'
p1132
g13
sS'Gaspare Diziani'
p1133
g21
sS'Frederic George Stephens'
p1134
g42
sS'Meindert Hobbema'
p1135
g21
sS'Sofonisba Anguissola'
p1136
g87
sS'Willem van der Vliet'
p1137
g21
sS'Herbert Draper'
p1138
g364
sS'Theophanes the Greek'
p1139
g236
sS'Charles Sheeler'
p1140
g450
sS'George Loftus Noyes'
p1141
g13
sS'James Torlakson'
p1142
g270
sS'Pierfrancesco Foschi'
p1143
g15
sS'Kees van Dongen'
p1144
g68
sS'Jacob Binck'
p1145
g5
sS'Francois Anguier'
p1146
g21
sS'Jean-Antoine Houdon'
p1147
g3
sS'Michel-Ange Houasse'
p1148
g39
sS'Jehan Georges Vibert'
p1149
g52
sS'Jan Bruegel the Elder'
p1150
g21
sS'Il Pordenone'
p1151
g87
sS'Steven van der Meulen'
p1152
g5
sS'Francois-Xavier Fabre'
p1153
g3
sS'Mathieu Le Nain'
p1154
g21
sS'Master of the Annunciation to the Shepherds'
p1155
g21
sS'Donato Bramante'
p1156
g15
sS'Giovanni da Campione'
p1157
g82
sS'Henri-Edmond Cross'
p1158
g345
sS'Jaume Huguet'
p1159
g9
sS'Giovanni Do'
p1160
g21
sS'Leon Baptista Alberti'
p1161
g9
sS'William Degouve de Nuncques'
p1162
g24
sS'Jacob de Wet'
p1163
g21
sS'Giovanni Battista Pittoni'
p1164
g39
sS'Valentin de Boulogne'
p1165
g21
sS'Defendente Ferrari'
p1166
g15
sS'Robert Rauschenberg'
p1167
g176
sS'Willem van de Velde the Younger'
p1168
g21
sS'Antonio Castillo y Saavedra'
p1169
g21
sS'Antonio Mancini'
p1170
g52
sS'Francisque Millet'
p1171
g21
sS'Paul Cornoyer'
p1172
g13
sS'Luca Cambiaso'
p1173
g87
sS'Thomas de Keyser'
p1174
g21
sS'Alonso Berruguete'
p1175
g87
sS'Alexis Jean Fournier'
p1176
g127
sS'David Ryckaert the Younger'
p1177
g21
sS'Leon Cogniet'
p1178
g52
sS'Barthel Beham'
p1179
g5
sS'Lee Krasner'
p1180
g64
sS'Bernhard Keil'
p1181
g21
sS'Giotto di Bondone'
p1182
g9
sS'Francois de Troy'
p1183
g21
sS'George Caleb Bingham'
p1184
g17
sS'Jean Arnould'
p1185
g21
sS'Ernest Lawson'
p1186
g13
sS'Enjaku'
p1187
g37
sS'Abraham Hondius'
p1188
g21
sS'Master of Hoogstraeten'
p1189
g5
sS'Gertrude Fiske'
p1190
g13
sS"Melchior d'Hondecoeter"
p1191
g21
sS'Claude Vignon'
p1192
g21
sS'William H. Johnson'
p1193
g154
sS'Brice Marden'
p1194
g7
sS'Nicola Salvi'
p1195
g39
sS'Jorg Breu the Elder'
p1196
g5
sS'Melchiorre Barthel'
p1197
g21
sS'Caspar Netscher'
p1198
g21
sS'Eugene Grasset'
p1199
g399
sS'Louis-Leopold Robert'
p1200
g3
sS'Andrei Rublev'
p1201
g236
sS'Master of the Berswordt Altar'
p1202
g82
sS'Antonio Lombardo'
p1203
g9
sS'Domenico Feti'
p1204
g21
sS'David Bailly'
p1205
g21
sS'Elias van den Broeck'
p1206
g21
sS'Francesco Mochi'
p1207
g87
sS'Konrad of Soest'
p1208
g5
sS'Kurt Schwitters'
p1209
g276
sS'Marie Bracquemond'
p1210
g13
sS'Angelo Morbelli'
p1211
g345
sS'Levina Teerlinc'
p1212
g5
sS'Nicolas Chaperon'
p1213
g21
sS'Alexei Jawlensky'
p1214
g54
sS'Francois-Joseph Navez'
p1215
g3
sS'Cornelius Johnson'
p1216
g21
sS'Thomas Crawford'
p1217
g3
sS'Emile Bernard'
p1218
g24
sS'Alessandro Allori'
p1219
g87
sS'Guido Molinari'
p1220
g283
sS'Laura Muntz Lyall'
p1221
g13
sS'Paolo Uccello'
p1222
g9
sS'Balthasar van der Ast'
p1223
g21
sS'Reynolds Beal'
p1224
g13
sS'Paul Van Somer'
p1225
g21
sS'Jacopo Sansovino'
p1226
g87
sS'Torii Kiyomitsu'
p1227
g37
sS'Franz von Stuck'
p1228
g24
sS'Giacomo Cavedone'
p1229
g21
sS'Francesco Bacchiacca'
p1230
g15
sS'Anton Domenico Gabbiani'
p1231
g21
sS'Alessandro Maganza'
p1232
g21
sS'Jean Dupas'
p1233
g74
sS'Richmond Barthe'
p1234
g154
sS'Cornelius Gijsbrechts'
p1235
g21
sS'Agnes Martin'
p1236
g7
sS'Willem Jacobsz Delff'
p1237
g21
sS'Zanobi Machiavelli'
p1238
g9
sS'John Quincy Adams Ward'
p1239
g112
sS'Edmond-Francois Aman-Jean'
p1240
g24
sS'Cornelius Liefrinck'
p1241
g21
sS'William Dobson'
p1242
g21
sS'Georg Pencz'
p1243
g5
sS'Henry van de Velde'
p1244
g399
sS'Pedro de Mena'
p1245
g21
sS'Anton Refregier'
p1246
g70
sS'Master Bertram'
p1247
g5
sS'Emil Jakob Schindler'
p1248
g13
sS'Frank Holl'
p1249
g70
sS'Lucien Pissarro'
p1250
g147
sS'Lucas van Valckenborch'
p1251
g5
sS'Walter Dorwin Teague'
p1252
g74
sS'Filippo della Valle'
p1253
g21
sS'Mattia Preti'
p1254
g21
sS'Charles Bell'
p1255
g270
sS'Francois-Hubert Drouais'
p1256
g3
sS'Carlos Orozco Romero'
p1257
g54
sS'Georges Lallemant'
p1258
g87
sS'Claude Cahun'
p1259
g58
sS'Karel Appel'
p1260
g64
sS'Floris van Dijck'
p1261
g21
sS'Francesco Francia'
p1262
g15
sS'Eugene-Emmanuel Amaury-Duval'
p1263
g52
sS'Jan Philips van Thielen'
p1264
g21
sS'Anthonie Jansz. van der Croos'
p1265
g21
sS'Jobst Harrich'
p1266
g21
sS'Erte'
p1267
g74
sS'Harriet Goodhue Hosmer'
p1268
g3
sS'Clarence H. White'
p1269
g90
sS'Jean Thierry'
p1270
g21
sS'Max Pechstein'
p1271
g54
sS'Max Ernst'
p1272
g58
sS'Thomas Banks'
p1273
g3
sS'Antoine Coypel'
p1274
g21
sS'Gerard Horenbout'
p1275
g5
sS'Paul Gavarni'
p1276
g17
sS'Sidney Goodman'
p1277
g98
sS'Jack Tworkov'
p1278
g64
sS'Etienne Jeaurat'
p1279
g21
sS'Alma Thomas'
p1280
g64
sS'Il Baciccio'
p1281
g21
sS'Camille Pissarro'
p1282
g345
sS'Antonio Marescotti'
p1283
g9
sS'Chauncey B. Ives'
p1284
g3
sS'Antoni Tapies'
p1285
g64
sS'Francois Ykens'
p1286
g21
sS'Pacecco de Rosa'
p1287
g21
sS'Robert Nanteuil'
p1288
g21
sS'Dosso Dossi'
p1289
g15
sS'Sebastiano Conca'
p1290
g21
sS'Luciano Fabro'
p1291
g11
sS'Annibale Carracci'
p1292
g21
sS'Isaack van Ostade'
p1293
g21
sS'Gerard Soest'
p1294
g21
sS'Thomas Willeboirts'
p1295
g21
sS'Giuseppe Porta'
p1296
g87
sS'Hans Holbein the Younger'
p1297
g5
sS'Neroccio'
p1298
g9
sS'Ivan Petrovich Argunov'
p1299
g39
sS'Pierre Bonnard'
p1300
g465
sS'Stephan Lochner'
p1301
g5
sS'John Robert Cozens'
p1302
g112
sS'Giusto de Menabuoi'
p1303
g82
sS'Pieter Gysels'
p1304
g21
sS'Paris Bordone'
p1305
g15
sS'Henry de Groux'
p1306
g24
sS'Ilya Repin'
p1307
g17
sS'Albert Pinkham Ryder'
p1308
g90
sS'Daniel van Heil'
p1309
g21
sS'Jose Aparicio'
p1310
g3
sS'Roberto Matta'
p1311
g58
sS'Giovanni Battista Paggi'
p1312
g21
sS'Robert Delaunay'
p1313
g121
sS'Abraham Bloemaert'
p1314
g87
sS'Ralston Crawford'
p1315
g450
sS'Daniel Mytens the Elder'
p1316
g21
sS'Willem Cornelisz. Duyster'
p1317
g21
sS"Paolo de' Matteis"
p1318
g21
sS'Paolo Romano'
p1319
g9
sS'Giulio Campagnola'
p1320
g9
sS'Jan van den Hoecke'
p1321
g21
sS'Jean Dunand'
p1322
g74
sS'William Hart'
p1323
g79
sS'Isaac Soreau'
p1324
g21
sS'Paolo Farinati'
p1325
g87
sS'Prospero Fontana'
p1326
g87
sS'Giovanni del Biondo'
p1327
g82
sS'Lorenzo Veneziano'
p1328
g236
sS'Francesco Albani'
p1329
g21
sS'Domenico Gagini'
p1330
g9
sS'Arent Arentsz.'
p1331
g21
sS'Paul Jenkins'
p1332
g64
sS'Giuseppe Chiari'
p1333
g21
sS'Giovanni Batista Piazetta'
p1334
g39
sS'Hendrick Gerritsz. Pot'
p1335
g21
sS'Edward Robert Hughes'
p1336
g42
sS'Alvin Langdon Coburn'
p1337
g90
sS'Hector Guimard'
p1338
g399
sS'Jozef Israels'
p1339
g17
sS'Duncan Grant'
p1340
g147
sS'Charles Joseph Natoire'
p1341
g39
sS'Urs Graf'
p1342
g5
sS'Sebastiano Mazzoni'
p1343
g21
sS'Pieter Claesz'
p1344
g21
sS'Ludwig Meidner'
p1345
g54
sS'Pablo Picasso'
p1346
g121
sS'Charles Filiger'
p1347
g132
sS'William Morris'
p1348
g42
sS'Roelof van Vries'
p1349
g21
sS'Ernest Hebert'
p1350
g52
sS'Gianfrancesco Susini'
p1351
g21
sS'Willem Drost'
p1352
g21
sS'Jan Mostaert'
p1353
g5
sS'Jacob Matham'
p1354
g21
sS'Marie Spartali Stillman'
p1355
g42
sS'Olga Boznanska'
p1356
g13
sS'Gabriel-Francois Doyen'
p1357
g52
sS'Giuseppe Mazzuoli'
p1358
g21
sS'Jan Verkolje'
p1359
g21
sS'Albert Edelfelt'
p1360
g52
sS'Girolamo da Carpi'
p1361
g15
sS'Henry Wallis'
p1362
g42
sS'Leon-Victor Dupre'
p1363
g127
sS'Edward Kienholz'
p1364
g176
sS'Jean Raoux'
p1365
g39
sS'Richard Gaywood'
p1366
g21
sS'Hendrik Hondius the Elder'
p1367
g21
sS'Fernand Leger'
p1368
g121
sS'Master of the Osservanza'
p1369
g9
sS'Simon Marmion'
p1370
g5
sS'Ralph Albert Blakelock'
p1371
g90
sS'Heinrich Aldegrever'
p1372
g5
sS'Charles Rain'
p1373
g118
sS'Gianlorenzo Bernini'
p1374
g21
sS'Belbello da Pavia'
p1375
g9
sS'Sam Francis'
p1376
g64
sS'Thomas Ralph Spence'
p1377
g364
sS'Leandro Bassano'
p1378
g87
sS'Kathe Kollwitz'
p1379
g54
sS'Gaetano Bellei'
p1380
g52
sS'Ludovicus Finson'
p1381
g21
sS'Bartolomeo Vivarini'
p1382
g9
sS'Conrad Witz'
p1383
g5
sS'Theodore Chasseriau'
p1384
g112
sS'Pierre Dumonstier'
p1385
g87
sS'Joseph Parrocel'
p1386
g21
sS'Caterina van Hemessen'
p1387
g5
sS'Antonio Vivarini'
p1388
g9
sS'William Mulready'
p1389
g112
sS'Jan Mandyn'
p1390
g5
sS'Anne Truitt'
p1391
g7
sS'Juan de Villanueva'
p1392
g3
sS'Willem de Poorter'
p1393
g21
sS'Girolamo Campagna'
p1394
g21
sS'Robert Vickrey'
p1395
g98
sS'Andrea del Castagno'
p1396
g9
sS'Jan van Ravesteyn'
p1397
g21
sS'Antonio Lopez Garcia'
p1398
g17
sS'Pompeo Batoni'
p1399
g39
sS'Ambrosius Holbein'
p1400
g5
sS'Antonio Giorgetti'
p1401
g21
sS'Joseph-Nicolas Robert-Fleury'
p1402
g52
sS'Francesco Trevisani'
p1403
g39
sS'Andre-Charles Boulle'
p1404
g21
sS'Giovanni Baglione'
p1405
g21
sS'Luca Carlevaris'
p1406
g21
sS'Hans Suss von Kulmbach'
p1407
g5
sS'Julian Stanczak'
p1408
g283
sS'Pierre Etienne Monnot'
p1409
g21
sS'Fra Angelico'
p1410
g9
sS'Friedrich Winter'
p1411
g21
sS'Lawren S. Harris'
p1412
g258
sS'Domenico Ghirlandaio'
p1413
g9
sS'Francesco Maffei'
p1414
g21
sS'Kate Greenaway'
p1415
g19
sS'Ernst Josephson'
p1416
g24
sS'Gershon Iskowitz'
p1417
g54
sS'Pierre-Auguste Renoir'
p1418
g13
sS'Guido da Siena'
p1419
g236
sS'Giuseppe Penone'
p1420
g11
sS'Edwin Austin Abbey'
p1421
g19
sS'Samuel Palmer'
p1422
g112
sS'Guilielmus Paludanus'
p1423
g5
sS'Paul de Lamerie'
p1424
g39
sS'John La Farge'
p1425
g90
sS'Master of Janosret'
p1426
g5
sS'Eleanor Fortescue-Brickdale'
p1427
g42
sS'Eugene Higgins'
p1428
g70
sS'Hannah Hoch'
p1429
g276
sS'Maerten van Heemskerck'
p1430
g5
sS'Jose Clemente Orozco'
p1431
g70
sS'Willem van Mieris'
p1432
g21
sS'Adriaen Coorte'
p1433
g21
sS'Bartholomeus van Bassen'
p1434
g21
sS'Ando Hiroshige'
p1435
g37
sS'Jean-Baptiste Huysmans'
p1436
g21
sS'Wilson Irvine'
p1437
g13
sS'Alfred Stieglitz'
p1438
g90
sS'Philip Pearlstein'
p1439
g98
sS'Rakkaken Yoshiyuki'
p1440
g37
sS'Samuel Colman 1832-1920'
p1441
g79
sS'Suzanne Valadon'
p1442
g132
sS'Anna Lea Merritt'
p1443
g42
sS'Charles Chaplin'
p1444
g52
sS'Marius-Jean-Antonin Mercie'
p1445
g52
sS'Clara Peeters'
p1446
g21
sS'Alfred Guillou'
p1447
g52
sS'Paul de Vos'
p1448
g21
sS'Chuck Close'
p1449
g270
sS'Shuncho'
p1450
g37
sS'Joris Abrahamsz. van der Haagen'
p1451
g21
sS'Mastro Guglielmo'
p1452
g82
sS'Franz Pforr'
p1453
g112
sS'Arthur Drummond'
p1454
g364
sS'Charles Fairfax Murray'
p1455
g42
sS'Pieter Boel'
p1456
g21
sS'Giacinto Brandi'
p1457
g21
sS'Jan van Noordt'
p1458
g21
sS'Carlo di Braccesco'
p1459
g9
sS'Jean-Antoine Watteau'
p1460
g39
sS'Lambert-Sigisbert Adam'
p1461
g21
sS'Vincenzo Camuccini'
p1462
g3
sS'Jan Wellens de Cock'
p1463
g5
sS'Richard Parkes Bonington'
p1464
g112
sS'Ridolfo Ghirlandaio'
p1465
g15
sS'Carolyn Brady'
p1466
g270
sS'Palmer Hayden'
p1467
g154
sS'Francois Perrier'
p1468
g21
sS'Lambert Lombard'
p1469
g5
sS'Rutilio Manetti'
p1470
g21
sS'Friedrich Heinrich Fuger'
p1471
g3
sS'Francis Picabia'
p1472
g58
sS'Augustin Hirschvogel'
p1473
g5
sS'Arthur Streeton'
p1474
g13
sS'Antoine Coysevox'
p1475
g21
sS'Andrea Previtali'
p1476
g9
sS'Jack Levine'
p1477
g70
sS'Roelandt Savery'
p1478
g5
sS'Cornelis Vermeulen'
p1479
g21
sS'Melchior Broederlam'
p1480
g82
sS'Kitty Kielland'
p1481
g17
sS'Charles Muller'
p1482
g52
sS'Richard Cosway'
p1483
g39
sS'Charles Rennie Mackintosh'
p1484
g399
sS'Wenzel von Olmutz'
p1485
g5
sS'Adriaen Isenbrant'
p1486
g5
sS'Jacopo Vignali'
p1487
g21
sS'Cornelis Saftleven'
p1488
g21
sS'A.Y. Jackson'
p1489
g258
sS'Hendrik Martensz Sorgh'
p1490
g21
sS'Anne-Louis Girodet de Roussy-Trioson'
p1491
g3
sS'Alvise Vivarini'
p1492
g9
sS'Segna di Buonaventure'
p1493
g82
sS'Richard Gerstl'
p1494
g54
sS'Andrea Vaccaro'
p1495
g21
sS'Ken Danby'
p1496
g98
sS'Michiel Sweerts'
p1497
g21
sS'Hans Zatzka'
p1498
g52
sS'Balcomb Greene'
p1499
g64
sS'Pedro Nunez de Villavicencio'
p1500
g21
sS'Filippo Napoletano'
p1501
g21
sS'Jan Victors'
p1502
g21
sS'Domenico Guidi'
p1503
g21
sS'Gian Jacopo Caraglio'
p1504
g15
sS'Lodewyk Toeput'
p1505
g5
sS'Jacques Courtois'
p1506
g21
sS'Antonio Puga'
p1507
g21
sS'Thomas Couture'
p1508
g52
sS'Jean Limbourg'
p1509
g82
sS'Morris Louis'
p1510
g64
sS'Henry Met de Bles'
p1511
g5
sS'Robert Braithwaite Martineau'
p1512
g42
sS'Edmund W. Greacen'
p1513
g13
sS'Piero Gilardi'
p1514
g11
sS'Philip van Kouwenbergh'
p1515
g21
sS'William Blake'
p1516
g112
sS'Pieter van Laer'
p1517
g21
sS'Sir Hubert von Herkomer'
p1518
g70
sS'Joseph Marioni'
p1519
g64
sS'Battista Dossi'
p1520
g15
sS'Jacopo del Sellaio'
p1521
g9
sS'Trophime Bigot'
p1522
g21
sS'Sir Lawrence Alma-Tadema'
p1523
g364
sS'Paul Klee'
p1524
g54
sS'Adriaen Brouwer'
p1525
g21
sS'Edward Pearce'
p1526
g21
sS'Michele Desubleo'
p1527
g21
sS'Pieter Claeissens I'
p1528
g5
sS'Jerome-Martin Langlois'
p1529
g52
sS'Alexandre Seon'
p1530
g24
sS'Peter Vischer the Younger'
p1531
g5
sS'Maestro Esiguo'
p1532
g82
sS'Charles Paul Gruppe'
p1533
g90
sS'Claude Mellan'
p1534
g21
sS'Mihaly Munkacsy'
p1535
g17
sS'Frank Stella'
p1536
g7
sS'Bonino da Campione'
p1537
g82
sS'Johann Koerbecke'
p1538
g5
sS'Louis Le Nain'
p1539
g21
sS'John Hamilton Mortimer'
p1540
g3
sS'Eileen Gray'
p1541
g74
sS'Cristoforo Roncalli'
p1542
g87
sS'Herman Herzog'
p1543
g79
sS'Sir John Tenniel'
p1544
g19
sS'Jean-Baptiste Santerre'
p1545
g21
sS'Egbert van der Poel'
p1546
g21
sS'Giovan Maria Morlaiter'
p1547
g39
sS'Giovanni Battista Tiepolo'
p1548
g39
sS'Allen Jones'
p1549
g176
sS'Jim Dine'
p1550
g176
sS'Luis Jimenez Aranda'
p1551
g13
sS'Thomas Moran'
p1552
g79
sS'Luigi Garzi'
p1553
g21
sS'Lodewijk de Vadder'
p1554
g21
sS'Gilbert Jackson'
p1555
g21
sS'Marco Basaiti'
p1556
g15
sS'Jan H. Muller'
p1557
g21
sS'Arnulf Rainer'
p1558
g58
sS'Dieric Bouts the Younger'
p1559
g5
sS'Jan Fyt'
p1560
g21
sS'Gian Cristoforo Romano'
p1561
g15
sS'Jacques Callot'
p1562
g87
sS"Roderic O'Conor"
p1563
g132
sS'Elizabeth Shippen Green'
p1564
g19
sS'Jeanne Jacquemin'
p1565
g24
sS'Jules Girardet'
p1566
g52
sS'Domenico Maria Canuti'
p1567
g21
sS'Il Nosadella'
p1568
g87
sS'Ralph Goings'
p1569
g270
sS'Albert Gleizes'
p1570
g121
sS'Matthias Grunewald'
p1571
g5
sS'Sir Godfrey Kneller'
p1572
g21
sS'Jan Porcellis'
p1573
g21
sS'Antiveduto Gramatica'
p1574
g21
sS'Joris Hoefnagel'
p1575
g5
sS'Jacques Jonghelinck'
p1576
g5
sS'Wilhelm Leibl'
p1577
g17
sS'Hanbei Shokosai'
p1578
g37
sS'Nanni di Bartolo'
p1579
g9
sS'Nicolaus Knupfer'
p1580
g21
sS'Jan Asselyn'
p1581
g21
sS'Simeon Solomon'
p1582
g42
sS'Allan Rohan Crite'
p1583
g154
sS'Arthur Hill Gilbert'
p1584
g13
sS'Diego de Siloe'
p1585
g87
sS'Giovanni Serodine'
p1586
g21
sS'Francois-Frederic Lemot'
p1587
g3
sS'J.C. Leyendecker'
p1588
g19
sS'Bastiaen Vrancx'
p1589
g21
sS'Kitao Masayoshi'
p1590
g37
sS'Donald Judd'
p1591
g7
sS'Jan Jansz. de Heem'
p1592
g21
sS'Luca della Robbia'
p1593
g9
sS'Johan Heinrich Roos'
p1594
g21
sS'Jan Weenix II'
p1595
g21
sS'Cornelis Ketel'
p1596
g5
sS'Theophile-Emmanuel Duverger'
p1597
g52
sS'Benedetto da Maiano'
p1598
g9
sS'Tommaso Manzuoli'
p1599
g87
sS'Corrado Giaquinto'
p1600
g39
sS'Carlo Crivelli'
p1601
g9
sS'Conrad Marca-Relli'
p1602
g64
sS'Giovanna Garzoni'
p1603
g21
sS'George Wharton Edwards'
p1604
g13
sS'Correggio'
p1605
g87
sS'Joachim von Sandrart'
p1606
g21
sS'Hans Wertinger'
p1607
g5
sS'Lord Frederic Leighton'
p1608
g364
sS'Daniel Vosmaer'
p1609
g21
sS'Giovanni da Modena'
p1610
g9
sS'Otto van Veen'
p1611
g87
sS'Peter Blake'
p1612
g176
sS'Nicolaes van Veerendael'
p1613
g21
sS'Juan Carreno de Miranda'
p1614
g21
sS'Augustin Pajou'
p1615
g3
sS'James Carroll Beckwith'
p1616
g52
sS'Master A.G.'
p1617
g5
sS'Frederic de Moucheron'
p1618
g21
sS'Edward Dugmore'
p1619
g64
sS'Pieter Van Der Borcht'
p1620
g5
sS'Palma Vecchio'
p1621
g15
sS'Master of the Housebook'
p1622
g5
sS'Jakob Bogdany'
p1623
g21
sS'Domenico Piola'
p1624
g21
sS'Tommaso Salini'
p1625
g21
sS'Jasper Johns'
p1626
g176
sS'Nicolas Lancret'
p1627
g39
sS'John George Brown'
p1628
g17
sS'Joachim Beuckelaer'
p1629
g5
sS'Luc Faydherbe'
p1630
g21
sS'Giuseppe Nogari'
p1631
g39
sS'Simon Vouet'
p1632
g21
sS'George Stubbs'
p1633
g112
sS'Lucas van Leyden'
p1634
g5
sS'Charles Conder'
p1635
g13
sS'Jean-Marc Nattier'
p1636
g39
sS'Kasimir Malevich'
p1637
g121
sS'Abraham de Vries'
p1638
g21
sS'Nicola Pisano'
p1639
g82
sS'Johann Christof Merck'
p1640
g21
sS'Abraham Willaerts'
p1641
g21
sS'Bernardo Torrens'
p1642
g98
sS'Ambrogio Lorenzetti'
p1643
g236
sS'Frans de Momper'
p1644
g21
sS'Andre Beauneveu'
p1645
g82
sS'Ernst Barlach'
p1646
g54
sS'Michael Zurn'
p1647
g21
sS'Barent Fabritius'
p1648
g21
sS'Veit Hirschvogel the Elder'
p1649
g5
sS'Cristofano Allori'
p1650
g21
sS'Frans Hals'
p1651
g21
sS'Alphonse-Marie-Adolphe de Neuville'
p1652
g52
sS'Niklaus Manuel'
p1653
g5
sS'Master of the Coburg Roundels'
p1654
g5
sS'Marco Zoppo'
p1655
g9
sS'Juan de Pareja'
p1656
g21
sS'Giacinto Calandrucci'
p1657
g21
sS'Master of Heiligenkreuz'
p1658
g5
sS'Francois Clouet'
p1659
g87
sS'Eric Fischl'
p1660
g98
sS'Carl Gustav Carus'
p1661
g112
sS'George Segal'
p1662
g176
sS'Benedetto da Rovezzano'
p1663
g9
sS'Marcantonio Franceschini'
p1664
g21
sS"Evrard d'Orleans"
p1665
g82
sS'Cecco Bravo'
p1666
g21
sS'Gaspar de Crayer'
p1667
g21
sS'Francesco Borromini'
p1668
g21
sS'Domenico Robusti'
p1669
g21
sS'Frederick Carl Frieseke'
p1670
g13
sS'Francesco di Valdambrino'
p1671
g9
sS'Guidoccio Cozzarelli'
p1672
g9
sS'Adam Colonia'
p1673
g21
sS'Gillis van Coninxloo'
p1674
g5
sS'Jan Tengnagel'
p1675
g21
sS'Lyonel Feininger'
p1676
g54
sS'Toshusai Sharaku'
p1677
g37
sS'Dirk Helmbreker'
p1678
g21
sS'Sebastiano del Piombo'
p1679
g87
sS'Benedetto Antelami'
p1680
g82
sS'Master of the Dominican Effigies'
p1681
g82
sS'Leone Leoni'
p1682
g87
sS'Bartolomeo di Giovanni'
p1683
g9
sS'Wallerant Vaillant'
p1684
g21
sS'Master of the Aix-en-Chapel Altarpiece'
p1685
g5
sS'Master of the Acts of Mercy'
p1686
g5
sS'Robert Mangold'
p1687
g7
sS'Vitale da Bologna'
p1688
g82
sS'Francesco Hayez'
p1689
g112
sS'Bartolomeo Schedone'
p1690
g21
sS'Paul Limbourg'
p1691
g82
sS'Erro'
p1692
g176
sS'Claude Lorrain'
p1693
g21
sS'Bartolomeo Schedoni'
p1694
g21
sS'Guido Bigarelli'
p1695
g82
sS'Francesco Primaticcio'
p1696
g87
sS'Jules Dalou'
p1697
g17
sS'Jan Mytens'
p1698
g21
sS'Lester Johnson'
p1699
g64
sS'Ugolino di Nerio'
p1700
g236
sS'Joseph Roques'
p1701
g3
sS'Joseph Chinard'
p1702
g3
sS'Joos de Momper II'
p1703
g21
sS'Jacob Pynas'
p1704
g21
sS'Theo van Doesburg'
p1705
g194
sS'Spinello Aretino'
p1706
g9
sS'Pedro Nunez del Valle'
p1707
g21
sS'Carl Borromaus Andreas Ruthart'
p1708
g21
sS'Francesco Zugno'
p1709
g39
sS'Theodore Gericault'
p1710
g112
sS'Denis Auguste Marie Raffet'
p1711
g3
sS'Jean Puy'
p1712
g68
sS'Frits Thaulow'
p1713
g13
sS'Henri Rousseau'
p1714
g132
sS'Barent Avercamp'
p1715
g21
sS'Billy Morrow Jackson'
p1716
g98
sS'Jan de Baen'
p1717
g21
sS'Jorg Petel'
p1718
g21
sS'Aert van der Neer'
p1719
g21
sS'Pietro da Rho'
p1720
g9
sS'Maurice Prendergast'
p1721
g13
sS'Juriaen van Streeck'
p1722
g21
sS'Sisto Badalocchio'
p1723
g21
sS'Filarete'
p1724
g9
sS'Gerrit Dou'
p1725
g21
sS'Adelaide Labille-Guiard'
p1726
g3
sS'Giovanni Boldini'
p1727
g52
sS'Cornelis van Dalem'
p1728
g87
sS'Martha Walter'
p1729
g13
sS'Victor Mottez'
p1730
g52
sS'Tintoretto'
p1731
g87
sS'Jean de la Croix I'
p1732
g21
sS'Marcel Duchamp'
p1733
g58
sS'Allart van Everdingen'
p1734
g21
sS'Matteo di Giovanni'
p1735
g9
sS'Andrea Mantegna'
p1736
g9
sS'Lorenzo Monaco'
p1737
g82
sS"Silvestro Dell'Acquila"
p1738
g9
sS'Peter Hurd'
p1739
g98
sS'David Smith'
p1740
g64
sS'Leonardo Bistolfi'
p1741
g24
sS'Jacometto'
p1742
g9
sS'Constant Troyon'
p1743
g127
sS'Jean Dubuffet'
p1744
g176
sS'Vittorio Crivelli'
p1745
g9
sS'Marcellus Laroon the Younger'
p1746
g39
sS'Boetius Bolswert'
p1747
g21
sS'Eugene de Blaas'
p1748
g52
sS'Aaron Pyle'
p1749
g30
sS'Harry Sternberg'
p1750
g70
sS'Ron Kleemann'
p1751
g270
sS'Louis Remy Mignot'
p1752
g79
sS'Puccio di Simone'
p1753
g82
sS'Jean Daulle'
p1754
g21
sS'Valerio Cioli'
p1755
g87
sS'Joan Mitchell'
p1756
g64
sS'Alexander Adriaenssen'
p1757
g21
sS'M.C. Escher'
p1758
g283
sS'Sir Peter Lely'
p1759
g21
sS'Harunobu'
p1760
g37
sS'David Johnson'
p1761
g79
sS'Juan de Valdes Leal'
p1762
g21
sS'Jamie Wyeth'
p1763
g98
sS'Theodore Gudin'
p1764
g112
sS'Louise Bourgeois'
p1765
g64
sS'John Byam Shaw'
p1766
g42
sS'Francisco Ribalta'
p1767
g21
sS'Nicolaes Berchem'
p1768
g21
sS'Vincenzo Campi'
p1769
g87
sS'Mair von Landshut'
p1770
g5
sS'Laureano Barrau'
p1771
g13
sS'Albert Lebourg'
p1772
g13
sS'Antonio Susini'
p1773
g21
sS'Wassily Kandinsky'
p1774
g54
sS'Giacomo Guardi'
p1775
g39
sS"Niccolo dell'Abbate"
p1776
g87
sS'Domenico da Tolmezzo'
p1777
g9
sS'Hieronymus Cock'
p1778
g5
sS'Cesar van Everdingen'
p1779
g21
sS'Katsukawa Shunsen'
p1780
g37
sS'Bartolomeo Coriolano'
p1781
g21
sS'Michele di Matteo Lambertini'
p1782
g9
sS'Peter Strub the Younger'
p1783
g5
sS'Ottavio Miseroni'
p1784
g21
sS'Philip Leslie Hale'
p1785
g13
sS'Juan Martinez Montanez'
p1786
g21
sS'Jean-Leon Gerome'
p1787
g52
sS'Bernardo Cavallino'
p1788
g21
sS'Paul Baudry'
p1789
g52
sS'Veit Stoss'
p1790
g5
sS'Albrecht Durer'
p1791
g5
sS'Vasilii Andreevich Tropinin'
p1792
g112
sS'Piat-Joseph Sauvage'
p1793
g39
sS'Gerard Houckgeest'
p1794
g21
sS'Lorenzo Costa'
p1795
g15
sS'Kay Nielsen'
p1796
g19
sS'Hendrick Frans Verbruggen'
p1797
g21
sS'Sebastiano Mainardi'
p1798
g15
sS'Guido Cagnacci'
p1799
g21
sS'Walker Evans'
p1800
g70
sS'John Hoskins'
p1801
g21
sS'Master of Saint Francis'
p1802
g236
sS'Francesco Squarcione'
p1803
g9
sS'Henri Bellechose'
p1804
g82
sS'Leon Bonnat'
p1805
g52
sS'Kikugawa Eizan'
p1806
g37
sS'Padovanino'
p1807
g21
sS'Francesco Granacci'
p1808
g15
sS'Soseki'
p1809
g37
sS'Esteban Vicente'
p1810
g64
sS'Johannes Lingelbach'
p1811
g21
sS'Salomon van Ruysdael'
p1812
g21
sS'John Smart'
p1813
g39
sS'Adja Yunkers'
p1814
g64
sS'Edmund Blair-Leighton'
p1815
g42
sS'Marcus Larson'
p1816
g112
sS'Abel Grimmer'
p1817
g21
sS'C. Paul Jennewein'
p1818
g74
sS'Herbert Ferber'
p1819
g64
sS'Nell Blaine'
p1820
g64
sS'Wouterus Verschuur'
p1821
g112
sS'Pelagio Palagi'
p1822
g3
sS'Antonello de Saliba'
p1823
g15
sS'Quirijn van Brekelenkam'
p1824
g21
sS'John Graham'
p1825
g7
sS'Crescenzio Onofrij'
p1826
g21
sS'Jacopo Zucchi'
p1827
g87
sS'Wilhelm Freddie'
p1828
g58
sS'Paul Cadmus'
p1829
g118
sS'Antoine-Denis Chaudet'
p1830
g3
sS'Marx Reichlich'
p1831
g5
sS'Jean-Baptiste Joseph Pater'
p1832
g39
sS'Leonora Carrington'
p1833
g58
sS'Lee Lawrie'
p1834
g74
sS'Bambaia'
p1835
g15
sS'Claes Cornelisz. Moeyaert'
p1836
g21
sS'Balthasar Permoser'
p1837
g21
sS'Domenico di Michelino'
p1838
g9
sS'A.J. Casson'
p1839
g258
sS'Bertel Thorvaldsen'
p1840
g3
sS'Vittore Carpaccio'
p1841
g15
sS'Leon Dabo'
p1842
g90
sS'John Sloan'
p1843
g26
sS'Fiorenzo di Lorenzo'
p1844
g9
sS'Onorio Marinari'
p1845
g21
sS'John Ottis Adams'
p1846
g13
sS'Joris van Son'
p1847
g21
sS'Guy Francois'
p1848
g21
sS'Bartholomeus van der Helst'
p1849
g21
sS'Caravaggio'
p1850
g21
sS'Sophie Anderson'
p1851
g42
sS'Louis-Joseph Le Lorrain'
p1852
g3
sS'Edwaert Collier'
p1853
g21
sS'Johan Thorn Prikker'
p1854
g399
sS'Marino Marini'
p1855
g54
sS'Aelbrecht Bouts'
p1856
g5
sS'Chaim Soutine'
p1857
g54
sS'Eugene Boudin'
p1858
g13
sS'Lawton Parker'
p1859
g13
sS'Henry Holiday'
p1860
g42
sS'Catherine Wiley'
p1861
g13
sS'William Bell Scott'
p1862
g42
sS'Harmen Steenwijck'
p1863
g21
sS'Emile Munier'
p1864
g52
sS'Gerard de Lairesse'
p1865
g21
sS'Kaigetsudo Anchi'
p1866
g37
sS'Giulio Romano'
p1867
g87
sS'Kiyonobu'
p1868
g37
sS'Giovanni Gioseffo dal Sole'
p1869
g21
sS'Bonaventura Berlinghieri'
p1870
g82
sS'Joan Miro'
p1871
g58
sS'Antonio Carnicero'
p1872
g39
sS'Robert Vonnoh'
p1873
g13
sS'Giovanni Segantini'
p1874
g24
sS'Jean Restout'
p1875
g3
sS'Sir William Reynolds-Stephens'
p1876
g364
sS'Richard Wilson'
p1877
g112
sS'Jan Vermeer III'
p1878
g21
sS'Raymond Hood'
p1879
g74
sS'Aelbert Cuyp'
p1880
g21
sS'Alexander Keirincx'
p1881
g21
sS'Alphonse Maureau'
p1882
g13
sS'John Salt'
p1883
g270
sS'Giovanni Francesco Grimaldi'
p1884
g21
sS'Conrad Meit'
p1885
g5
sS'Ivan Nikitin'
p1886
g21
sS'Hendrik Goudt'
p1887
g21
sS'Alphonse Mucha'
p1888
g399
sS'Philippe Otto Runge'
p1889
g112
sS'John Crome'
p1890
g112
sS'Simon Kick'
p1891
g21
sS'John Constable'
p1892
g112
sS'Lodovico Carracci'
p1893
g21
sS'George Biddle'
p1894
g70
sS'Kartner Meister'
p1895
g5
sS'Donatello'
p1896
g9
sS'Ludolf Leendertsz. de Jongh'
p1897
g21
sS'Andrea Casali'
p1898
g39
sS'Gustave Moreau'
p1899
g24
sS'Hippolyte Flandrin'
p1900
g3
sS'Henri Gaudier-Brzeska'
p1901
g121
sS'Friedrich von Amerling'
p1902
g52
sS'Salvador Dali'
p1903
g58
sS'Harrison Fisher'
p1904
g19
sS'Josef Hoffmann'
p1905
g74
sS'Master of the Avignon School'
p1906
g9
sS'Michel Anguier'
p1907
g21
sS'Canaletto'
p1908
g39
sS'Alonso Cano'
p1909
g21
sS'Diana Scultori'
p1910
g87
sS'Hendrick van Balen'
p1911
g21
sS'Alexandre-Gabriel Decamps'
p1912
g112
sS'Francesco Solimena'
p1913
g21
sS'Girolamo Romanino'
p1914
g15
sS'Agnolo Bronzino'
p1915
g87
sS'Johann Carl Loth'
p1916
g21
sS'Francois-Andre Vincent'
p1917
g3
sS'Jan Dirksz Both'
p1918
g21
sS'Stefano di Zevio'
p1919
g9
sS'Albert Kotin'
p1920
g64
sS'Rosso Fiorentino'
p1921
g87
sS'Attavante Degli Attavanti'
p1922
g9
sS'Martin Bernat'
p1923
g9
sS'Claudio Bravo'
p1924
g98
sS'Francois Garnier'
p1925
g21
sS'Jan Cossiers'
p1926
g21
sS'Abraham Begeyn'
p1927
g21
sS'David Teniers the Younger'
p1928
g21
sS'Antonio Pollaiolo'
p1929
g9
sS'John Griffier the Elder'
p1930
g21
sS'Emily Carr'
p1931
g54
sS'John Kacere'
p1932
g270
sS'Richard Anuszkiewicz'
p1933
g283
sS'Guido Reni'
p1934
g21
sS'Theodor de Bry'
p1935
g5
sS'Henry Percy Gray'
p1936
g90
sS'Jacopo della Quercia'
p1937
g9
sS'Pieter Jansz. Saenredam'
p1938
g21
sS'Charles Gleyre'
p1939
g52
sS'Russell Drysdale'
p1940
g17
sS'Jan Saenredam'
p1941
g21
sS'Jacob van Campen'
p1942
g21
sS'Thomas Cole'
p1943
g79
sS'Mary Callery'
p1944
g64
sS'Lubin Baugin'
p1945
g21
sS'Karel van Mander'
p1946
g87
sS'Hasegawa Mitsunobu'
p1947
g37
sS'Master of the Playing Cards'
p1948
g5
sS'Giovanni Francesco Caroto'
p1949
g15
sS'Laura Gilpin'
p1950
g90
sS'Anders Zorn'
p1951
g17
sS'Ivan Aivazovsky'
p1952
g52
sS'Benedetto Ghirlandaio'
p1953
g9
sS'Jan van de Cappelle'
p1954
g21
sS'Francesco di Giorgio Martini'
p1955
g9
sS'Samuel van Hoogstraten'
p1956
g21
sS'Charles Le Brun'
p1957
g21
sS'Andrew Wyeth'
p1958
g98
sS'Claude Monet'
p1959
g13
sS'Martin Johnson Heade'
p1960
g79
sS'Anselme Flamen'
p1961
g21
sS'Pierre Cartellier'
p1962
g3
sS'Cornelis Bisschop'
p1963
g21
sS'Cosimo Rosselli'
p1964
g9
sS'Giuseppe Antonio Petrini'
p1965
g21
sS'Francesco di Vannuccio'
p1966
g82
sS'Scott Prior'
p1967
g98
sS'Jacob Esselens'
p1968
g21
sS'John Chamberlain'
p1969
g176
sS'Dominique Louis Papety'
p1970
g52
sS'Jacob de Wit'
p1971
g39
sS'Anthonie de Lorme'
p1972
g21
sS'Nicolas Bertin'
p1973
g39
sS'Jackson Pollock'
p1974
g64
sS'Jan Provost'
p1975
g5
sS'Jean Paul Riopelle'
p1976
g64
sS'Denys van Alsloot'
p1977
g21
sS'Lorenzo Pasinelli'
p1978
g21
sS'Antonio Fontanesi'
p1979
g127
sS'Arthur Hacker'
p1980
g42
sS'Louis Comfort Tiffany'
p1981
g399
sS"Master of the Prado's Adoration of the Magi"
p1982
g5
sS'Carlo Francesco Nuvolone'
p1983
g21
sS'Pier Francesco Mola'
p1984
g21
sS'Emile Galle'
p1985
g399
sS'Osias Beert the Elder'
p1986
g21
sS'William Baziotes'
p1987
g64
sS'Bessie Potter Vonnoh'
p1988
g13
sS'Ferdinand Voet'
p1989
g21
sS'Okumura Masanobu'
p1990
g37
sS'Master of the Rinuccini Chapel'
p1991
g82
sS'Constantin Hansen'
p1992
g52
sS'Svend Wiig Hansen'
p1993
g54
sS'Max Slevogt'
p1994
g13
sS'Jesus-Rafael Soto'
p1995
g283
sS'Pietro Testa'
p1996
g21
sS'Raphael'
p1997
g15
sS'Hans Multscher'
p1998
g5
sS'Dionisii'
p1999
g236
sS'Master of the Pfullendorf Altar'
p2000
g5
sS'Dox Thrash'
p2001
g154
sS'Hubertus van Hove'
p2002
g52
sS'Juan de Flandes'
p2003
g5
sS'Theodoros Stamos'
p2004
g64
sS'Toyokuni'
p2005
g37
sS'Conrad Felixmuller'
p2006
g54
sS'Hendrick Goltzius'
p2007
g21
sS'John Roddam Spencer Stanhope'
p2008
g42
sS'James Collinson'
p2009
g42
sS'Ben Shahn'
p2010
g70
sS'Lucas Cranach the Younger'
p2011
g5
sS'Piero della Francesca'
p2012
g9
sS'Massimiliano Soldani'
p2013
g21
sS'Paul Starrett Sample'
p2014
g30
sS'Pieter van den Bosch'
p2015
g21
sS'Francis Criss'
p2016
g450
sS'George Inness'
p2017
g90
sS'Lucien Levy-Dhurmer'
p2018
g399
sS'Claude-Augustin Cayot'
p2019
g39
sS'Patrick Henry Bruce'
p2020
g121
sS'Thomas Cooper Gotch'
p2021
g42
sS'Nicolaes Eliasz. Pickenoy'
p2022
g21
sS'Michelangelo Cerquozzi'
p2023
g21
sS'Frank H. Desch'
p2024
g13
sS'Hieronymus Francken II'
p2025
g21
sS"Jacques d'Arthois"
p2026
g21
sS'Ferdinand Heilbuth'
p2027
g52
sS'Adolf Daucher'
p2028
g5
sS'Jacob Gerritz. Cuyp'
p2029
g21
sS'Adriaen Frans Boudewyns'
p2030
g21
sS'Franz Marc'
p2031
g54
sS'Tom Wesselmann'
p2032
g176
sS'Willem Kalf'
p2033
g21
sS'Bernardo Martorell'
p2034
g9
sS'Harold Gilman'
p2035
g147
sS'Giovanni Girolamo Savoldo'
p2036
g87
sS'Hans Vredeman de Vries'
p2037
g5
sS'Remigio Cantagallina'
p2038
g21
sS'Mabuse'
p2039
g5
sS'Jean Hey'
p2040
g5
sS'Jacob de Heusch'
p2041
g21
sS'Charles Spencelayh'
p2042
g52
sS'Eva Hesse'
p2043
g7
sS'Jules Bastien-Lepage'
p2044
g17
sS'William Langson Lathrop'
p2045
g90
sS'Frans Pourbus the Elder'
p2046
g5
sS'Giulio Campi'
p2047
g15
sS'Shigemasa'
p2048
g37
sS'William Sidney Mount'
p2049
g17
sS'Jacques Dubois'
p2050
g39
sS'Faye HeavyShield'
p2051
g7
sS'Thomas Forster'
p2052
g21
sS'Jane Peterson'
p2053
g13
sS'David Alfaro Siqueiros'
p2054
g70
sS'Isabel Bishop'
p2055
g70
sS'Hans Makart'
p2056
g52
sS'Fern Isabel Coppedge'
p2057
g13
sS'Abraham Govaerts'
p2058
g21
sS'Jorg Ratgeb'
p2059
g5
sS'Medardo Rosso'
p2060
g13
sS'Ernst Ludwig Kirchner'
p2061
g54
sS'Jan Miense Molenaer'
p2062
g21
sS'Jan Vermeer'
p2063
g21
sS'Giovanni Battista Ruoppolo'
p2064
g21
sS'Giuseppe Recco'
p2065
g21
sS'Remedios Varo'
p2066
g58
sS'Hans Burgkmair the Elder'
p2067
g5
sS'Gioacchino Assereto'
p2068
g21
sS'Eugenio Cajes'
p2069
g21
sS'Salomon Rombouts'
p2070
g21
sS'Ivan Vishnyakov'
p2071
g21
sS'Rowland Lockey'
p2072
g21
sS'Alfred Jensen'
p2073
g64
sS'William Bailey'
p2074
g98
sS'Jean-Baptiste Marie Huet'
p2075
g39
sS'Jean Beraud'
p2076
g13
sS'Pietro della Vecchia'
p2077
g21
sS'Master of the Mascoli Altar'
p2078
g9
sS'Robert Motherwell'
p2079
g64
sS'James Bolivar Manson'
p2080
g147
sS'Beatrix Potter'
p2081
g19
sS'James Campbell'
p2082
g42
sS'Raffaellino del Garbo'
p2083
g9
sS'Bartolommeo Ammanati'
p2084
g87
sS'Marguerite Gerard'
p2085
g112
sS'Jusepe Leonardo'
p2086
g21
sS'Cesare Dandini'
p2087
g21
sS'Anna Ancher'
p2088
g13
sS'Albert Joseph Moore'
p2089
g364
sS'Louis-Charles-Auguste Couder'
p2090
g112
sS'Jan Kupecky'
p2091
g21
sS'Louis Gallait'
p2092
g112
sS'Sir James Thornhill'
p2093
g21
sS'Andreas Schluter'
p2094
g21
sS'Raphael Soyer'
p2095
g70
sS'Giuseppe Passeri'
p2096
g21
sS'Gentile Bellini'
p2097
g9
sS'Homer Dodge Martin'
p2098
g90
sS'Jan Davidsz. de Heem'
p2099
g21
sS'Francisco Pradilla Ortiz'
p2100
g17
sS'Parmigianino'
p2101
g87
sS'Ugolino Lorenzetti'
p2102
g236
sS'Albert van Ouwater'
p2103
g5
sS'Andrea Ansaldo'
p2104
g21
sS'Raymond Duchamp-Villon'
p2105
g121
sS'William Chadwick'
p2106
g13
sS'Pietro Novelli'
p2107
g21
sS'Cornelis de Man'
p2108
g21
sS'Chobunsai Eishi'
p2109
g37
sS'Johannes Hanias'
p2110
g21
sS'Peter Koellin'
p2111
g5
sS'George Morrison'
p2112
g64
sS'Artus Quellinus I'
p2113
g21
sS'Imogen Cunningham'
p2114
g90
sS'Sir Edward Poynter'
p2115
g364
sS'Tamara de Lempicka'
p2116
g74
sS'Cornelis Vroom'
p2117
g21
sS'Remigius van Leemput'
p2118
g21
sS'Louisa Moillon'
p2119
g21
sS'Tilman Riemenschneider'
p2120
g5
sS'Baldassare Peruzzi'
p2121
g15
sS'Albert H. Krehbiel'
p2122
g13
sS'Antonie Palamedesz.'
p2123
g21
sS'Jean Barbet'
p2124
g9
sS'Jean-Jacques Lagrenee'
p2125
g3
sS'Jessie Willcox Smith'
p2126
g19
sS'James Ward'
p2127
g112
sS'Francois Rude'
p2128
g112
sS'Andrea del Sarto'
p2129
g15
sS'Duccio di Buoninsegna'
p2130
g236
sS'Benjamin Robert Haydon'
p2131
g112
sS'Matthias Withoos'
p2132
g21
sS'Jacob Jordaens'
p2133
g21
sS'Cornelis van Poelenburgh'
p2134
g21
sS'Lucie Cousturier'
p2135
g345
sS'Andre Breton'
p2136
g58
sS'Quentin Massys'
p2137
g5
sS'Biagio Falcieri'
p2138
g21
sS'Ad Reinhardt'
p2139
g7
sS'Henri Regnault'
p2140
g52
sS'Edwin Holgate'
p2141
g258
sS'Fusatane'
p2142
g37
sS'Roelant Roghman'
p2143
g21
sS'Moses Soyer'
p2144
g70
sS'Giuseppe Pellizza da Volpedo'
p2145
g345
sS'Sassoferrato'
p2146
g21
sS'Giambattista Cima da Conegliano'
p2147
g9
sS'Constantin Guys'
p2148
g17
sS'Gabriele Munter'
p2149
g54
sS'Emmanuel Fremiet'
p2150
g17
sS'Orazio Marinali'
p2151
g21
sS'Jean-Jacques-Francois Le Barbier'
p2152
g3
sS'Antoine Etex'
p2153
g112
sS'Arshile Gorky'
p2154
g64
sS'Harald Sohlberg'
p2155
g17
sS'Master E.S.'
p2156
g5
sS'James Gleeson'
p2157
g58
sS'Frederic Edwin Church'
p2158
g79
sS'Daniel Seghers'
p2159
g21
sS'Juan de Juni'
p2160
g87
sS'Pieter Janssens Elinga'
p2161
g21
sS'Gustave Dore'
p2162
g112
sS'Giovanni Domenico Tiepolo'
p2163
g39
sS'Henryk Siemiradzki'
p2164
g52
sS'Jacob Huysmans'
p2165
g21
sS'Vecchietta'
p2166
g9
sS'Claude Hoin'
p2167
g39
sS'Cristoforo Munari'
p2168
g21
sS'Janet Fish'
p2169
g98
sS'John Bushnell'
p2170
g21
sS'Cornelis Verbeeck'
p2171
g21
sS'Josse van Craesbeeck'
p2172
g21
sS'Il Volterrano'
p2173
g21
sS'Dieric Bouts the Elder'
p2174
g5
sS'Prince Rupert'
p2175
g21
sS'Al Held'
p2176
g64
sS'Jules-Joseph Lefebvre'
p2177
g52
sS'Hendrik Mommers'
p2178
g21
sS'Bartolomeo Montagna'
p2179
g9
sS'Sebastian de Herrera Barnuevo'
p2180
g21
sS'Giovanni Bon'
p2181
g82
sS'Alessandro Vittoria'
p2182
g87
sS'Robert Tournieres'
p2183
g21
sS'Colin Campbell Cooper'
p2184
g13
sS'Pierre Julien'
p2185
g39
sS'Domenico Puligo'
p2186
g15
sS'Francesco Curradi'
p2187
g21
sS'Henry H. La Thangue'
p2188
g17
sS'Adriaen van der Werff'
p2189
g21
sS'Jacques de la Joue II'
p2190
g21
sS'Paul Peel'
p2191
g52
sS'Raphael Collazo'
p2192
g64
sS'Utagawa Kunihiro'
p2193
g37
sS'Antonio Montauti'
p2194
g21
sS'Joos van Cleve'
p2195
g5
sS'Francisco de Herrera the Younger'
p2196
g21
sS'Victor Horta'
p2197
g399
sS'Jacob van Oost the Elder'
p2198
g21
sS'Pieter Snayers'
p2199
g21
sS'Peder Als'
p2200
g39
sS'Dirck van Delen'
p2201
g21
sS'Andrea Palladio'
p2202
g87
sS'Johan Tobias Sergel'
p2203
g3
sS'Niclas Lafrensen'
p2204
g39
sS'Alfred Sisley'
p2205
g13
sS'Roger Fry'
p2206
g132
sS'William DeLeftwich Dodge'
p2207
g13
sS'Garofalo'
p2208
g15
sS'Paul Bril'
p2209
g21
sS'Giovanni da Balduccio'
p2210
g82
sS'Mathias Zundt'
p2211
g5
sS'Robert W. Weir'
p2212
g79
sS'William Louis Sonntag'
p2213
g79
sS'Gian Battista Viola'
p2214
g21
sS'Philips Koninck'
p2215
g21
sS'Pierre Le Gros II'
p2216
g21
sS'Adrien Dauzats'
p2217
g52
sS'Charles Alston'
p2218
g154
sS'Pietro Longhi'
p2219
g39
sS'Ludovico Mazzolino'
p2220
g15
sS'Abraham Rattner'
p2221
g54
sS'Alexandre Hogue'
p2222
g30
sS'Domenico Campagnola'
p2223
g15
sS'Master of the Duke of Bedford'
p2224
g9
sS'Mariano Salvador Maella'
p2225
g3
sS'Nicholas Hilliard'
p2226
g5
sS'Domenico Maggiotto'
p2227
g39
sS'Cristoforo Solari'
p2228
g15
sS'Yoshifuji'
p2229
g37
sS'Edouard Vuillard'
p2230
g132
sS'Andries van Eertvelt'
p2231
g21
sS'Coosje van Bruggen'
p2232
g176
sS'Georg Philipp Rugendas I'
p2233
g21
sS'Charles Angrand'
p2234
g345
sS'Joachim Antonisz. Wtewael'
p2235
g87
sS'Bernardino Licinio'
p2236
g15
sS'Philips Wouwerman'
p2237
g21
sS'Pieter van der Plas'
p2238
g21
sS'Hendrick de Keyser I'
p2239
g21
sS'George Fuller'
p2240
g90
sS'Ichirakutei Eisui'
p2241
g37
sS'Edward Corbett'
p2242
g64
sS'Marie-Francoise-Constance Mayer-Lamartiniere'
p2243
g3
sS'Daniele Crespi'
p2244
g21
sS'Lodewijk van der Helst'
p2245
g21
sS'Abraham Storck'
p2246
g21
sS'Niccolo Tribolo'
p2247
g87
sS'Master of the Tegernsee Passion'
p2248
g5
sS'Gian Antonio Guardi'
p2249
g39
sS'Domenico Capriolo'
p2250
g15
sS'Hans Maler zu Schwaz'
p2251
g5
sS'Antonio Bregno'
p2252
g9
sS'Dennis Miller Bunker'
p2253
g13
sS'David Hare'
p2254
g64
sS'Otto Stark'
p2255
g13
sS'Luis de Morales'
p2256
g87
sS'Giovanni Francesco da Rimini'
p2257
g9
sS'Piero di Cosimo'
p2258
g15
sS'Chokosai Eisho'
p2259
g37
sS'Maurice Quentin de La Tour'
p2260
g39
sS'Gustave Courbet'
p2261
g17
sS'Tony Robert-Fleury'
p2262
g52
sS'Raoul Hausmann'
p2263
g276
sS'Altobello Melone'
p2264
g15
sS'Jean-Paul Laurens'
p2265
g52
sS'Ian Hornak'
p2266
g270
sS'Jean-Baptiste Carpeaux'
p2267
g17
sS'Bartolomeo Bellano'
p2268
g9
sS'Barnett Newman'
p2269
g7
sS'Master of Frankfurt'
p2270
g5
sS'Antonio Bellucci'
p2271
g21
sS'Pierre Bonnaud'
p2272
g52
sS'Victor Schnetz'
p2273
g52
sS'Jan van de Velde II'
p2274
g21
sS'Jacques Lipchitz'
p2275
g121
sS'Sinibaldo Scorza'
p2276
g21
sS'Felice Giani'
p2277
g3
sS'Dirck Volkertszoon Coornhert'
p2278
g5
sS'Jan Vermeyen'
p2279
g5
sS'Gustave Boulanger'
p2280
g52
sS'Yurakusai Nagahide'
p2281
g37
sS'Master S.'
p2282
g5
sS'Carl Locher'
p2283
g17
sS'Edward J. Steichen'
p2284
g90
sS'Guy Rose'
p2285
g13
sS'Albrecht Altdorfer'
p2286
g5
sS'Adriaen Collaert'
p2287
g21
sS'Cornelis Dusart'
p2288
g21
sS'Frants Henningsen'
p2289
g17
sS'Ford Madox Brown'
p2290
g42
sS'Fedor Rokotov'
p2291
g39
sS'Roy Lichtenstein'
p2292
g176
sS'Salomon Koninck'
p2293
g21
sS'Leonhard Kern'
p2294
g21
sS'Franciabigio'
p2295
g15
sS'Giovanni Lanfranco'
p2296
g21
sS'Leon Belly'
p2297
g52
sS'Milton Resnick'
p2298
g64
sS'Theodore Robinson'
p2299
g13
sS'Hans Baldung Grien'
p2300
g5
sS'Gerbrand van den Eeckhout'
p2301
g21
sS'Joseph Vivien'
p2302
g21
sS'Nuno Goncalves'
p2303
g9
sS'Nicolo da Bologna'
p2304
g82
sS'Master of Saint Veronica'
p2305
g82
sS'Pietro Liberi'
p2306
g21
sS'Rose Adelaide Ducreux'
p2307
g3
sS'Orazio Gentileschi'
p2308
g21
sS'Etienne Allegrain'
p2309
g21
sS'Pieter Coecke van Aelst'
p2310
g5
sS'Jan Sadeler I'
p2311
g5
sS'Federico Zuccaro'
p2312
g87
sS'Elaine Fried de Kooning'
p2313
g64
sS'Giovanni Ambrogio Figino'
p2314
g87
sS'Francois Girardon'
p2315
g21
sS'Gabriele Castagnola'
p2316
g52
sS'Thomas Matthews Rooke'
p2317
g42
sS'Guillaume Coustou the Elder'
p2318
g21
sS'Antoine Berjon'
p2319
g112
sS'Michelangelo Anselmi'
p2320
g15
sS'Gano di Fazio'
p2321
g82
sS'Pietro da Cortona'
p2322
g21
sS'Paolo Veronese'
p2323
g87
sS'V. DeGrailly'
p2324
g79
sS'Bramantino'
p2325
g15
sS'Giovanni Benedetto Castiglione'
p2326
g21
sS'Paulus Moreelse'
p2327
g21
sS'Dirck van Baburen'
p2328
g21
sS'Elmer Bischoff'
p2329
g64
sS'Violet Oakley'
p2330
g19
sS'Fernand Khnopff'
p2331
g24
sS'Franz Kline'
p2332
g64
sS'Anna Dorothea Therbusch'
p2333
g39
sS'Marie-Francois Firmin-Girard'
p2334
g52
sS'Guillaume Lethiere'
p2335
g3
sS'Jose Gutierrez Solana'
p2336
g54
sS'Giuseppe Ghislandi'
p2337
g21
sS'Jean-Baptiste Deshays'
p2338
g21
sS'Evariste-Vital Luminais'
p2339
g52
sS'Abraham van Calraet'
p2340
g21
sS'Cimabue'
p2341
g236
sS'Jacob Hogers'
p2342
g21
sS'Goro di Gregorio'
p2343
g82
sS'Antoine Le Nain'
p2344
g21
sS'Joseph-Charles Marin'
p2345
g39
sS'Jared French'
p2346
g118
sS'Apollonio di Giovanni'
p2347
g9
sS'Pompeo Leoni'
p2348
g87
sS'Gene Davis'
p2349
g64
sS'Gustav Klimt'
p2350
g399
sS'Grant Wood'
p2351
g30
sS'Jacob Adriaensz. Backer'
p2352
g21
sS'Johannes Kip'
p2353
g21
sS'Jan van Kessel the Younger'
p2354
g21
sS'Maria van Oosterwyck'
p2355
g21
sS'Herman Saftleven the Younger'
p2356
g21
sS'Sir George Clausen'
p2357
g17
sS'Tsukioka Yoshitoshi'
p2358
g37
sS'Man Ray'
p2359
g58
sS'Max Weber'
p2360
g54
sS'Egbert van Heemskerk I'
p2361
g21
sS'Orazio Borgianni'
p2362
g21
sS'Pietro Cavallini'
p2363
g82
sS'Master of the Saint Bartholomew Altarpiece'
p2364
g5
sS'Gaudenzio Ferrari'
p2365
g15
sS'Frank Weston Benson'
p2366
g13
sS'Adriaen Thomas Key'
p2367
g5
sS'Etienne-Maurice Falconet'
p2368
g39
sS'Giovanni Francesco Rustici'
p2369
g15
sS"Jacopo de'Barbari"
p2370
g9
sS'Louis John Rhead'
p2371
g19
sS'George Elbert Burr'
p2372
g13
sS'Frans Francken II'
p2373
g21
sS'Jacobello Dalle Masegne'
p2374
g82
sS'Bartolomeo Bon'
p2375
g9
sS'Thomas Woolner'
p2376
g42
sS'Hendrick Cornelisz. Vroom'
p2377
g21
sS'William Rimmer'
p2378
g112
sS'Ambrosius Bosschaert the Elder'
p2379
g21
sS'Pinturicchio'
p2380
g9
sS'Tommaso da Modena'
p2381
g236
sS'Alexandre Antigna'
p2382
g52
sS'Gilberto Zorio'
p2383
g11
sS'Malcolm Morley'
p2384
g270
sS'Gilles Rousselet'
p2385
g21
sS'Eugene Carriere'
p2386
g24
sS'Lorenzo Lotto'
p2387
g15
sS'Silvestro Lega'
p2388
g17
sS'Isaac Luttichuys'
p2389
g21
sS'Hendrick van der Burch'
p2390
g21
sS'Maria Sibylla Merian'
p2391
g21
sS'Charles Mellin'
p2392
g21
sS'Willem van de Velde the Elder'
p2393
g21
sS'Altichiero'
p2394
g82
sS'George Minne'
p2395
g24
sS'Paolo Veneziano'
p2396
g236
sS'Fra Bartolommeo'
p2397
g15
sS'Michelozzo di Bartolomeo'
p2398
g9
sS'Simon Renard de Saint-Andre'
p2399
g21
sS'Theodoor van Thulden'
p2400
g21
sS'Gil de Siloe'
p2401
g9
sS'Lippo Memmi'
p2402
g236
sS'Adrian Ludwig Richter'
p2403
g112
sS'Giovanni Anselmo'
p2404
g11
sS'Thomas Chambers'
p2405
g79
sS'Andrea del Verrocchio'
p2406
g9
sS'Philippe de Champaigne'
p2407
g21
sS'Hieronymus Bosch'
p2408
g5
sS'Philippe-Augustin Immenraet'
p2409
g21
sS'Pierre-Eugene Montezin'
p2410
g13
sS'James Brooks'
p2411
g64
sS'Il Riccio'
p2412
g9
sS'Clyfford Still'
p2413
g64
sS'Edmund Coates'
p2414
g79
sS'Christoffel van den Berghe'
p2415
g21
sS'Antonio Carneo'
p2416
g87
sS'Sukenobu'
p2417
g37
sS'J.E.H. MacDonald'
p2418
g258
sS'Leonard Ochtman'
p2419
g90
sS'Gregorio de Ferrari'
p2420
g39
sS'Andrea Sansovino'
p2421
g15
sS'Christen Kobke'
p2422
g17
sS'Gustave Adolphe Mossa'
p2423
g24
sS'Master of the Holy Family'
p2424
g5
sS'Edouard Detaille'
p2425
g52
sS'Johann Gottfried Schadow'
p2426
g3
sS'Jacquemart de Hesdin'
p2427
g82
sS'Palma Giovane'
p2428
g87
sS'Jan Wynants'
p2429
g21
sS'Henry Ossawa Tanner'
p2430
g17
sS'Bartolommeo Caporali'
p2431
g9
sS'Alfred Thompson Bricher'
p2432
g79
sS'Desiderio da Settignano'
p2433
g9
sS'Ulrich Apt the Elder'
p2434
g5
sS'Giuseppe Cesari'
p2435
g87
sS'Eduardo Zamacois y Zabala'
p2436
g52
sS'Jacques de Stella'
p2437
g21
sS'Duane Hanson'
p2438
g270
sS"Allan D'Arcangelo"
p2439
g176
sS'Bartolome Esteban Murillo'
p2440
g21
sS'Colijn de Coter'
p2441
g5
sS'John Macallan Swan'
p2442
g52
sS'Frank E. Schoonover'
p2443
g19
sS'Sandro Botticelli'
p2444
g9
sS'Jean Michelin'
p2445
g21
sS'Guy Wiggins'
p2446
g13
sS'Henri Gervex'
p2447
g52
sS'Jean-Louis Lemoyne'
p2448
g21
sS'Anna Bilinska'
p2449
g52
sS'Jan van Kessel'
p2450
g21
sS'Jan Hackaert'
p2451
g21
sS'Evaristo Baschenis'
p2452
g21
sS'Francesco Fontebasso'
p2453
g39
sS'Viktor Schreckengost'
p2454
g74
sS'Master of San Jacopo a Mucciana'
p2455
g82
sS'Lucas Gassel'
p2456
g5
sS'Jean-Baptiste-Camille Corot'
p2457
g17
sS'Godfried Schalcken'
p2458
g21
sS'Marmaduke Cradock'
p2459
g21
sS'Prosper Marilhat'
p2460
g52
sS'Georges Seurat'
p2461
g345
sS'Yaacov Agam'
p2462
g283
sS'Paul Seignac'
p2463
g17
sS'Dionigi Bussola'
p2464
g21
sS'Jan Cornelisz. Verspronck'
p2465
g21
sS'Frank Cowper'
p2466
g42
sS'Bernardino Luini'
p2467
g15
sS'Alphonse Osbert'
p2468
g24
sS'Moritz Von Schwind'
p2469
g112
sS'Enea Talpino'
p2470
g21
sS'Dirck Jacobsz'
p2471
g5
sS'Abraham Bosse'
p2472
g21
sS'Adriaen de Vries'
p2473
g87
sS'Charles Isaac Ginner'
p2474
g147
sS'Palamedes Palamedesz.'
p2475
g21
sS'Hans Bol'
p2476
g5
sS'Willem Frederik van Royen'
p2477
g21
sS'Barthel Bruyn the Elder'
p2478
g5
sS'Jules Dupre'
p2479
g127
sS'Koryusai'
p2480
g37
sS'John Riley'
p2481
g21
sS'Preston Dickinson'
p2482
g450
sS'Andre Masson'
p2483
g58
sS'Max Beckmann'
p2484
g54
sS'Baccio Bandinelli'
p2485
g87
sS'Nicolas-Toussaint Charlet'
p2486
g112
sS'Jacob van Moscher'
p2487
g21
sS'Victor Vasarely'
p2488
g283
sS'Johann Hermann Carmiencke'
p2489
g79
sS'Edward Frederick Brewtnall'
p2490
g42
sS'Winold Reiss'
p2491
g74
sS'Jacobus Vrel'
p2492
g21
sS'Pierre-Felix Fix-Masseau'
p2493
g74
sS'Giuseppe Angeli'
p2494
g21
sS'Joost Cornelisz. Droochsloot'
p2495
g21
sS'Aleksei Antropov'
p2496
g39
sS'William Davis'
p2497
g42
sS'Adolph Gottlieb'
p2498
g64
sS'Anthonie Waterloo'
p2499
g21
sS'Joanna Boyce'
p2500
g42
sS'Alighiero e Boetti'
p2501
g11
sS'Johann Heinrich Schonfeld'
p2502
g21
sS'Nicolaes Maes'
p2503
g21
sS'Juan Gris'
p2504
g121
sS'Francesco Traini'
p2505
g236
sS'Giovan Paolo Lomazzo'
p2506
g87
sS'Peter Halley'
p2507
g7
sS'Francis Bacon'
p2508
g54
sS'Jacob Toorenvliet'
p2509
g21
sS'Jan Siberechts'
p2510
g21
sS'Judith Leyster'
p2511
g21
sS'Jean-Baptiste Tuby I'
p2512
g21
sS'Taddeo Zuccaro'
p2513
g87
sS'Charles Appel'
p2514
g90
sS'Benoit Massou'
p2515
g21
sS'Victor-Gabriel Gilbert'
p2516
g52
sS'James Rosenquist'
p2517
g176
sS'Charles Courtney Curran'
p2518
g13
sS'Filippo Lauri'
p2519
g21
sS'Georges Rouault'
p2520
g68
sS'T. Alexander Harrison'
p2521
g90
sS'Jean de Liege'
p2522
g82
sS'Jan van Eyck'
p2523
g5
sS'Abraham van Diepenbeeck'
p2524
g21
sS'Cornelis Galle I'
p2525
g21
sS'Eugene Fromentin'
p2526
g112
sS'Pieter Anthonisz. van Groenewegen'
p2527
g21
sS'Francisco Collantes'
p2528
g21
sS'Henry Maynell Rheam'
p2529
g42
sS'Jules Hardouin Mansart'
p2530
g21
sS'Aby Altson'
p2531
g364
sS'Giovanni da San Giovanni'
p2532
g21
sS'Andrea da Firenze'
p2533
g82
sS'Matteo Rosselli'
p2534
g21
sS'Karl von Egeri'
p2535
g15
sS'Thomas Hudson'
p2536
g39
sS'Kunimasu'
p2537
g37
sS'George Grosz'
p2538
g54
sS'Andrea Bregno'
p2539
g9
sS'Sir Christopher Wren'
p2540
g21
sS'Emil Nolde'
p2541
g54
sS'Kay Sage'
p2542
g58
sS'Juan de Arellano'
p2543
g21
sS'Elliott Daingerfield'
p2544
g90
sS'Nancy Reddin Kienholz'
p2545
g176
sS'Jean-Francois de Troy'
p2546
g3
sS'Willem de Kooning'
p2547
g64
sS'Torii Kiyotsune'
p2548
g37
sS'Ary Scheffer'
p2549
g52
sS'Kunichika'
p2550
g37
sS'Francisco Meneses Osorio'
p2551
g21
sS'Felicien Rops'
p2552
g24
sS'Jan Wyck'
p2553
g21
sS'Nicolas Regnier'
p2554
g21
sS'Daniel Garber'
p2555
g13
sS'Parrasio Micheli'
p2556
g87
sS'Bernard Safran'
p2557
g98
sS'Richard Hamilton'
p2558
g176
sS'Jacques Blanchard'
p2559
g21
sS'Alfonso Ossorio'
p2560
g64
sS'Ed Ruscha'
p2561
g176
sS'Hubert Gerhard'
p2562
g87
sS'Aleksandr Benois'
p2563
g24
sS'Abel Warshawsky'
p2564
g13
sS'Thomas Jefferson'
p2565
g3
sS'James McDougal Hart'
p2566
g79
sS'Pieter van der Werff'
p2567
g21
sS'Richard McLean'
p2568
g270
sS'Giacomo Serpotta'
p2569
g39
sS'Helen McNicoll'
p2570
g13
sS'Edward Burne-Jones'
p2571
g42
sS'Gerard Terborch'
p2572
g21
sS'Alex Colville'
p2573
g118
sS'Stefano da Verona'
p2574
g82
sS'Henrietta Mabel May'
p2575
g13
sS'Sebastiano Ricci'
p2576
g39
sS'Master of the Life of Saint John the Baptist'
p2577
g236
sS'Isaac de Moucheron'
p2578
g21
sS'Alberto Burri'
p2579
g64
sS'Fernand Cormon'
p2580
g52
sS'Lucia Anguissola'
p2581
g87
sS'Juan de Espinosa'
p2582
g21
sS'Jean Bellegambe'
p2583
g5
sS'Martin Schongauer'
p2584
g5
sS'Pedro Berruguete'
p2585
g9
sS'Jean Daret'
p2586
g21
sS'William Samuel Horton'
p2587
g13
sS'Edmund Dulac'
p2588
g19
sS'William Glackens'
p2589
g26
sS'Kitagawa Utamaro'
p2590
g37
sS'Johann Spilberg'
p2591
g21
sS'Pieter de Grebber'
p2592
g21
sS'Alex Katz'
p2593
g176
sS'Frans Pourbus the Younger'
p2594
g21
sS'Thomas Eakins'
p2595
g17
sS'Kabukido Enkyo'
p2596
g37
sS'Jan Miel'
p2597
g21
sS'Erasmus Quellinus'
p2598
g21
sS'Jean Baptiste Theodon'
p2599
g21
sS'Mikhail Larionov'
p2600
g121
sS'John Vanderlyn'
p2601
g3
sS'Francesco Furini'
p2602
g21
sS'F.H. Varley'
p2603
g258
sS'Christoffer Wilhelm Eckersberg'
p2604
g3
sS'Richard Stankiewicz'
p2605
g64
sS'Wilhelm Trubner'
p2606
g17
sS'Richard B. Gruelle'
p2607
g13
sS'Pier Paolo Calzolari'
p2608
g11
sS'Arthur Wardle'
p2609
g364
sS'Bridget Riley'
p2610
g283
sS'Robert Bevan'
p2611
g147
sS'Franz Cleyn'
p2612
g21
sS'Antoni Gaudi'
p2613
g399
sS'Joseph Marie Vien'
p2614
g3
sS'Cornelis Claesz. van Wieringen'
p2615
g21
sS'Anne Vallayer-Coster'
p2616
g39
sS'Michael Parkes'
p2617
g118
sS'Agnolo Gaddi'
p2618
g9
sS'Matthias Stomer'
p2619
g21
sS'Augustus John'
p2620
g147
sS'Simone Pignoni'
p2621
g21
sS'Master of the Bardi Saint Francis'
p2622
g82
sS'Marie Louise Elisabeth Vigee-Lebrun'
p2623
g3
sS'Wayne Thiebaud'
p2624
g176
sS'Guillaume Courtois'
p2625
g21
sS'Filippo Juvarra'
p2626
g21
sS'Adolf Schreyer'
p2627
g52
sS'Jacob Storck'
p2628
g21
sS'Ellsworth Kelly'
p2629
g7
sS'Yanagawa Shigenobu II'
p2630
g37
sS'Moses van Uyttenbroeck'
p2631
g21
sS'Andreas Ritzos'
p2632
g236
sS'Thomas Gainsborough'
p2633
g112
sS'Hiram Powers'
p2634
g3
sS'Hokusai Katsushika'
p2635
g37
sS'Francois Boucher'
p2636
g39
sS'Michiel van Coxcie'
p2637
g5
sS'Josefa de Obidos'
p2638
g21
sS'Tom Blackwell'
p2639
g270
sS'Wilhelm von Schadow'
p2640
g112
sS'Joseph Mallord William Turner'
p2641
g112
sS'Gerrit Adriaensz. Berckheyde'
p2642
g21
sS'Augustus Saint-Gaudens'
p2643
g17
sS'Frederic Soulacroix'
p2644
g52
sS'Jacob Ochtervelt'
p2645
g21
sS'Leon Bakst'
p2646
g74
sS'Harman Verelst'
p2647
g21
sS'Antico'
p2648
g9
sS'Ludolf Backhuysen'
p2649
g21
sS'Adriaen van Nieulandt'
p2650
g21
sS'Idelle Weber'
p2651
g270
sS'Antonio Canova'
p2652
g3
sS'Charles Ebert'
p2653
g13
sS'Federico Barocci'
p2654
g87
sS'Master of the Life of the Virgin'
p2655
g5
sS'Seymour Lipton'
p2656
g64
sS'Norman Bluhm'
p2657
g64
sS'Roger Medearis'
p2658
g30
sS'Antoine-Louis Barye'
p2659
g112
sS'Bartolo di Fredi'
p2660
g82
sS'Adam-Franz van der Meulen'
p2661
g21
sS'Hans Pleydenwurff'
p2662
g5
sS'Suzuki Harushige'
p2663
g37
sS'Alessio Baldovinetti'
p2664
g9
sS'Bunro'
p2665
g37
sS'Simone Martini'
p2666
g82
sS'Piero Manzoni'
p2667
g11
sS'Gilbert Gaul'
p2668
g17
sS'Leonaert Bramer'
p2669
g21
sS'Josef Fenneker'
p2670
g54
sS'Davis Cone'
p2671
g270
sS'Charles-Francois Hutin'
p2672
g39
sS'Pieter van Lint'
p2673
g21
sS'John Melhuish Strudwick'
p2674
g42
sS'Sebastien Bourdon'
p2675
g21
sS'Gertrude Greene'
p2676
g64
sS'Stephen Greene'
p2677
g64
sS'Giacomo Quarenghi'
p2678
g3
sS'Paul Delaroche'
p2679
g52
sS'Jean Lemaire'
p2680
g21
sS'Amedeo Modigliani'
p2681
g54
sS'Geertgen Tot Sint-Jans'
p2682
g5
sS'Hendrick Verschuring'
p2683
g21
sS'Jacopo Chimenti'
p2684
g21
sS'Sano di Pietro'
p2685
g9
sS'Will Howe Foote'
p2686
g13
sS'Antonio Rossellino'
p2687
g9
sS'Hans Holbein the Elder'
p2688
g5
sS'Jean-Auguste-Dominique Ingres'
p2689
g3
sS'Andrea Solario'
p2690
g15
sS'Panfilo Nuvolone'
p2691
g87
sS'Augusta Savage'
p2692
g154
sS'Fernando Gallego'
p2693
g9
sS'Pieter Jansz. van Asch'
p2694
g21
sS'John Graham Lough'
p2695
g3
sS"Katsukawa Shun'ei"
p2696
g37
sS'Francesco Salviati'
p2697
g87
sS'Pieter Jansz Quast'
p2698
g21
sS'Regis-Francois Gignoux'
p2699
g79
sS'Antonio Mantegazza'
p2700
g9
sS'Antoine Vollon'
p2701
g17
sS'Cornelis de Wael'
p2702
g21
sS'Jean Delville'
p2703
g24
sS'Maximilien Luce'
p2704
g345
sS'Totoya Hokkei'
p2705
g37
sS'Second Gouda Woodcutter'
p2706
g5
sS'Henri Fantin-Latour'
p2707
g17
sS'Pieter Cornelisz. van Slingelandt'
p2708
g21
sS'Meredith Frampton'
p2709
g74
sS'Dirck Stoop'
p2710
g21
sS'Edmonia Lewis'
p2711
g3
sS'Marten van Valckenborch'
p2712
g5
sS'Caspar Gras'
p2713
g21
sS'Bonaventura Peeters I'
p2714
g21
sS'Benedetto Gennari'
p2715
g21
sS'Charles Sims'
p2716
g52
sS'Berthe Morisot'
p2717
g13
sS'Antonio Raggi'
p2718
g21
sS'Goffredo Wals'
p2719
g21
sS'Frank Johnston'
p2720
g258
sS'Niccolo di Liberatore'
p2721
g9
sS'Frans van Mieris the Elder'
p2722
g21
sS'Giovanni Richter'
p2723
g21
sS'Washington Allston'
p2724
g112
sS'Gregorio Fernandez'
p2725
g21
sS'Gillis Congnet'
p2726
g5
sS'Filippino Lippi'
p2727
g9
sS'Paul Nash'
p2728
g58
sS'Edward Penfield'
p2729
g19
sS'Hans Leu the Elder'
p2730
g5
sS'Girolamo Forabosco'
p2731
g21
sS'Cosme Tura'
p2732
g9
sS'Giovan Francesco Penni'
p2733
g15
sS'Oskar Kokoschka'
p2734
g54
sS'Isamu Noguchi'
p2735
g64
sS'August Macke'
p2736
g54
sS'Nicolai Abildgaard'
p2737
g3
sS'Dirck Barendsz.'
p2738
g5
sS'Pierre Puvis de Chavannes'
p2739
g24
sS"T'oros Roslin"
p2740
g236
sS'Bartolomeo Manfredi'
p2741
g21
sS'Giovanni Antonio Pellegrini'
p2742
g39
sS'Mabel Dwight'
p2743
g70
sS'John Brett'
p2744
g42
sS'Bartolomeo Bettera'
p2745
g21
sS'Carl Andre'
p2746
g7
sS'Henriette Wyeth'
p2747
g98
sS'Hashiguchi Goyo'
p2748
g37
sS'Master of the Polling Panels'
p2749
g5
sS'Jan Toorop'
p2750
g24
sS'Max Meldrum'
p2751
g90
sS'Jan van der Straet'
p2752
g5
sS'Pirro Ligorio'
p2753
g87
sS'Hugo Simberg'
p2754
g24
sS'Louis Icart'
p2755
g74
sS'Artus Wolffort'
p2756
g21
sS'Jean-Francois Millet'
p2757
g17
sS'Raffaele Giannetti'
p2758
g52
sS'James Ensor'
p2759
g54
sS'Eishosai Choki'
p2760
g37
sS'Norman Lewis'
p2761
g64
sS'Agostino Veneziano'
p2762
g15
sS'Ambrogio de Predis'
p2763
g9
sS'Vincent van Gogh'
p2764
g132
sS'Jean Malouel'
p2765
g82
sS'Frederick McCubbin'
p2766
g13
sS'Jacob van Es'
p2767
g21
sS'Bo Bartlett'
p2768
g98
sS'Daniel Alexander Williamson'
p2769
g42
sS'Ottavio Leoni'
p2770
g21
sS'Bartolomeo Veneto'
p2771
g15
sS'Jose de Rivera'
p2772
g64
sS'Coppo di Marcovaldo'
p2773
g236
sS'Francesco del Cairo'
p2774
g21
sS'Horace Vernet'
p2775
g52
sS'Hendrick Avercamp'
p2776
g21
sS'Joseph Clement Coll'
p2777
g19
sS'Francois Le Moyne'
p2778
g39
sS'Esaias van de Velde'
p2779
g21
sS'Mary Beale'
p2780
g21
sS'William Merritt Chase'
p2781
g13
sS'Richard Pousette-Dart'
p2782
g64
sS'Aaron Douglas'
p2783
g154
sS'Fitz Hugh Lane'
p2784
g79
sS'Stanley William Hayter'
p2785
g58
sS'Randall Lake'
p2786
g98
sS'Jean Duvet'
p2787
g5
sS'Ercole Ferrata'
p2788
g21
sS'Govert Flinck'
p2789
g21
sS'Antonello da Messina'
p2790
g9
sS'Nino Pisano'
p2791
g82
sS'Bernardino Zenale'
p2792
g15
sS'Eduardo Rosales'
p2793
g17
sS'Henri Martin'
p2794
g132
sS'Sol LeWitt'
p2795
g7
sS'Giacomo Amiconi'
p2796
g39
sS'Master F.V.B.'
p2797
g5
sS'Ben Benn'
p2798
g68
sS'Richard Serra'
p2799
g7
sS'Elisabetta Sirani'
p2800
g21
sS'Taddeo Gaddi'
p2801
g9
sS'Frank Dumond'
p2802
g13
sS'Pieter Codde'
p2803
g21
sS'Pieter van Anraadt'
p2804
g21
sS'Diego Rivera'
p2805
g70
sS'Kiyonaga'
p2806
g37
sS'Joseph Wright of Derby'
p2807
g112
sS'Job Berckheyde'
p2808
g21
sS'Adachi Ginko'
p2809
g37
sS'Jules-Elie Delaunay'
p2810
g3
sS'Jean-Baptiste Pigalle'
p2811
g39
sS'John Henry Twachtman'
p2812
g90
sS'Michele Rocca'
p2813
g39
sS'Jacob van der Ulft'
p2814
g21
sS'Bonifacio Veronese'
p2815
g15
sS'Piet Mondrian'
p2816
g194
sS"Biagio d'Antonio da Firenze"
p2817
g9
sS'Eustache Le Sueur'
p2818
g21
sS'Jean Baptiste van Loo'
p2819
g21
sS'Annie Louise Swynnerton'
p2820
g42
sS'Giovanni Mansueti'
p2821
g9
sS'Andrea della Robbia'
p2822
g9
sS'Guercino'
p2823
g21
sS'Guillaume Dupre'
p2824
g21
sS'Felix Vallotton'
p2825
g465
sS'Jan Verkade'
p2826
g132
sS'Luca Giordano'
p2827
g21
sS'Viggo Johansen'
p2828
g17
sS'Charles Robinson'
p2829
g19
sS'Paul Weber'
p2830
g79
sS'John William Casilear'
p2831
g79
sS'Leonardo da Vinci'
p2832
g15
sS'Hale Woodruff'
p2833
g70
sS'Richard Emil Miller'
p2834
g13
sS'Jacopo del Casentino'
p2835
g82
sS'Karl Emil Termohlen'
p2836
g90
sS'Kate Elizabeth Bunce'
p2837
g42
sS'Theodore Rousseau'
p2838
g127
sS'Giulio Carpioni'
p2839
g21
sS'Mary Pratt'
p2840
g98
sS'Sir Henry Raeburn'
p2841
g112
sS'Bartolomeo Cesi'
p2842
g21
sS'Dwight W. Tryon'
p2843
g90
sS'Francisco de Herrera the Elder'
p2844
g21
sS'John Register'
p2845
g98
sS'Karel Dujardin'
p2846
g21
sS'Robert Indiana'
p2847
g176
sS'Morris Topchevsky'
p2848
g70
sS'Jan van der Heyden'
p2849
g21
sS'Antonio Campi'
p2850
g87
sS'Johann Boeckhorst'
p2851
g21
sS'Matthys Naiveu'
p2852
g21
sS'Erasmus Grasser'
p2853
g5
sS'Niccolo Fiorentino'
p2854
g9
sS'Giuliano da Sangallo'
p2855
g9
sS'Mariotto Albertinelli'
p2856
g9
sS"Nicola di Maestro Antonio d'Ancona"
p2857
g9
sS'Michiel Jansz. Miereveld'
p2858
g21
sS'Agnolo degli Erri'
p2859
g9
sS'Jacob van Schuppen'
p2860
g21
sS'Gerard Donck'
p2861
g21
sS'Sawrey Gilpin'
p2862
g112
sS'Lucas Cranach the Elder'
p2863
g5
sS'Jan Abrahamsz. Beerstraten'
p2864
g21
sS'Juan van der Hamen y Leon'
p2865
g21
sS'Adam Weisweiler'
p2866
g3
sS'Alexander Helwig Wyant'
p2867
g90
sS'Frans Post'
p2868
g21
sS'Tiberio Tinelli'
p2869
g21
sS'Frans Snyders'
p2870
g21
sS'Pietro Lombardo'
p2871
g9
sS'Louise Nevelson'
p2872
g64
sS'Hermann Limbourg'
p2873
g82
sS'Belisario Corenzio'
p2874
g21
sS'Laurent de La Hyre'
p2875
g21
sS'Alessandro Magnasco'
p2876
g39
sS'Giovanni Martini da Udine'
p2877
g15
sS'Francois Bonvin'
p2878
g17
sS'Michael Dahl'
p2879
g21
sS'Mark Rothko'
p2880
g64
sS'Jan Polack'
p2881
g5
sS'Andrea di Bartolo'
p2882
g9
sS'Molly Luce'
p2883
g30
sS'Domenico Gargiulo'
p2884
g21
sS'Sir Joshua Reynolds'
p2885
g39
sS'Peter Blume'
p2886
g118
sS'Francesco Laurana'
p2887
g9
sS'Grace Hartigan'
p2888
g64
sS'Chauncey F. Ryder'
p2889
g90
sS'Pierre-Auguste Cot'
p2890
g52
sS'Master of the Middle-Rhine'
p2891
g5
sS'Howard Pyle'
p2892
g19
sS'Richard Artschwager'
p2893
g176
sS'Charles Melville Dewey'
p2894
g90
sS'Lambert Jacobsz'
p2895
g21
sS'Utagawa Toyokuni II'
p2896
g37
sS'Thomas Worthington Whittredge'
p2897
g79
sS'Walter Griffin'
p2898
g13
sS'Ferdinand Hodler'
p2899
g399
sS'Hans von Marees'
p2900
g112
sS'Maurice de Vlaminck'
p2901
g68
sS'Emile Levy'
p2902
g52
sS'Claude Tousignant'
p2903
g283
sS'Michelangelo Buonarroti'
p2904
g15
s.