(dp1
S'gianantonio guardi'
p2
S'gian antonio guardi'
p3
sS'erasmus ii quellinus'
p4
S'erasmus quellinus'
p5
sS'jan baptist huysmans'
p6
S'jean-baptiste huysmans'
p7
sS'gian lorenzo bernini'
p8
S'gianlorenzo bernini'
p9
sS'fran\xe7ois flameng'
p10
S'francois flameng'
p11
sS'guillaume lethi?re'
p12
S'guillaume lethiere'
p13
sS'cosm? tura'
p14
S'cosme tura'
p15
sS'egbert van heemskerck'
p16
S'egbert van heemskerk i'
p17
sS'adriaen thomasz key'
p18
S'adriaen thomas key'
p19
sS'artus i quellinus'
p20
S'artus quellinus i'
p21
sS'scheggia'
p22
S'lo scheggia'
p23
sS'hieronymus francken'
p24
S'hieronymus francken ii'
p25
sS'bernardo zenale'
p26
S'bernardino zenale'
p27
sS'fran\xe7ois lemoyne'
p28
S'francois le moyne'
p29
sS'peter cornelius'
p30
S'peter von cornelius'
p31
sS"jacques d' arthois"
p32
S"jacques d'arthois"
p33
sS'\xc9douard vuillard'
p34
S'edouard vuillard'
p35
sS'franz xaver winterhalter'
p36
S'franz xavier winterhalter'
p37
sS'diego rodriguez de silva y vel\xc1zquez'
p38
S'diego velazquez'
p39
sS'dieric the younger bouts'
p40
S'dieric bouts the younger'
p41
sS'gherardo di jacopo starnina'
p42
S'gherardo starnina'
p43
sS'bartholomaeus spranger'
p44
S'bartholomeus spranger'
p45
sS'allaert van everdingen'
p46
S'allart van everdingen'
p47
sS'jacques de lajoue'
p48
S'jacques de la joue ii'
p49
sS'cosmas damian asam'
p50
S'kosmas damian asam'
p51
sS'gaspard de crayer'
p52
S'gaspar de crayer'
p53
sS'\xc9mile bernard'
p54
S'emile bernard'
p55
sS'vittore crivelli'
p56
S'vittorio crivelli'
p57
sS'jozef isra\xcbls'
p58
S'jozef israels'
p59
sS'l\xe9opold robert'
p60
S'louis-leopold robert'
p61
sS"ercole de' roberti"
p62
S"ercole de'roberti"
p63
sS'domenico fetti'
p64
S'domenico feti'
p65
sS'egbert jaspersz. van heemskerck'
p66
g17
sS'christoph paudiss'
p67
S'christopher paudiss'
p68
sS'edwart collier'
p69
S'edwaert collier'
p70
sS'dieric the elder bouts'
p71
S'dieric bouts the elder'
p72
sS'jean-jacques-fran\xe7ois lebarbier'
p73
S'jean-jacques-francois le barbier'
p74
sS'luis paret y alcaz\xc1r'
p75
S'luis paret y alcazar'
p76
sS'jan cornelisz verspronck'
p77
S'jan cornelisz. verspronck'
p78
sS'friedrich heinrich f\xdcger'
p79
S'friedrich heinrich fuger'
p80
sS'f\xe9lix vallotton'
p81
S'felix vallotton'
p82
sS"melchior d' hondecoeter"
p83
S"melchior d'hondecoeter"
p84
sS'jean-baptiste van loo'
p85
S'jean baptiste van loo'
p86
sS'stefano da zevio'
p87
S'stefano di zevio'
p88
sS'antonio de saliba'
p89
S'antonello de saliba'
p90
sS'bonifazio bembo'
p91
S'bonifacio bembo'
p92
sS'giovanni di piermatteo boccati'
p93
S'giovanni boccati'
p94
sS'jacob isaackszon van ruisdael'
p95
S'jacob van ruisdael'
p96
sS"niccol? dell' arca"
p97
S"niccolo dell'arca"
p98
sS'barend avercamp'
p99
S'barent avercamp'
p100
sS'fran\xe7ois de nom\xc9'
p101
S'francois de nome'
p102
sS'matthias stom'
p103
S'matthias stomer'
p104
sS'niccol? di pietro gerini'
p105
S'nicolo di pietro'
p106
sS'eug?ne delacroix'
p107
S'eugene delacroix'
p108
sS'govert teunisz. flinck'
p109
S'govert flinck'
p110
sS'pieter cornelisz. van slingeland'
p111
S'pieter cornelisz. van slingelandt'
p112
sS'konrad witz'
p113
S'conrad witz'
p114
sS'geertgen tot sint jans'
p115
S'geertgen tot sint-jans'
p116
sS'anthonie palamedesz.'
p117
S'antonie palamedesz.'
p118
sS'maurice brazil prendergast'
p119
S'maurice prendergast'
p120
sS'george innes'
p121
S'george inness'
p122
sS'jean-bernard restout'
p123
S'jean restout'
p124
sS'jacobus storck'
p125
S'jacob storck'
p126
sS'pierfrancesco di jacopo foschi'
p127
S'pierfrancesco foschi'
p128
sS'hendrick cornelisz. van vliet'
p129
S'hendrik cornelisz van der vliet'
p130
sS'philipp otto runge'
p131
S'philippe otto runge'
p132
sS'louis-jean-fran\xe7ois lagren\xc9e'
p133
S'louis jean francois lagrenee'
p134
sS'master of the st. bartholomew altar'
p135
S'master of the saint bartholomew altarpiece'
p136
sS'\xc9mile-antoine bourdelle'
p137
S'emile antoine bourdelle'
p138
sS"niccol? dell' abbate"
p139
S"niccolo dell'abbate"
p140
sS'pedro n\xda?ez de villavicencio'
p141
S'pedro nunez de villavicencio'
p142
sS'dmitry grigorevich levitsky'
p143
S'dmitrii grigorevich levitskii'
p144
sS'th\xe9o van rysselberghe'
p145
S'theo van rysselberghe'
p146
sS'luis trist\xc1n de escamilla'
p147
S'luis tristan de escamilla'
p148
sS'fran\xe7ois perrier'
p149
S'francois perrier'
p150
sS'nuno gon\xc7alves'
p151
S'nuno goncalves'
p152
sS'paolo de san leocadio'
p153
S'pablo de san leocadio'
p154
sS'pieter pietersz. lastman'
p155
S'pieter lastman'
p156
sS'fran\xe7ois-hubert drouais'
p157
S'francois-hubert drouais'
p158
sS'johann heinrich sch\xd6nfeld'
p159
S'johann heinrich schonfeld'
p160
sS'jean-victor schnetz'
p161
S'victor schnetz'
p162
sS'reiner nooms'
p163
S'reinier nooms'
p164
sS'antonio carnicero y mancio'
p165
S'antonio carnicero'
p166
sS'giovan gioseffo dal sole'
p167
S'giovanni gioseffo dal sole'
p168
sS'eug?ne boudin'
p169
S'eugene boudin'
p170
sS'hans von mar\xc9es'
p171
S'hans von marees'
p172
sS'hendrick mommers'
p173
S'hendrik mommers'
p174
sS'maria van oosterwijk'
p175
S'maria van oosterwyck'
p176
sS'cornelis huysmans'
p177
S'corneille huysmans'
p178
sS'caesar van everdingen'
p179
S'cesar van everdingen'
p180
sS'robert william vonnoh'
p181
S'robert vonnoh'
p182
sS'bon boullogne'
p183
S'bon de boullogne'
p184
sS'vladimir lukich borovikovsky'
p185
S'vladimir lukich borovikovskii'
p186
sS'lambert jacobsz.'
p187
S'lambert jacobsz'
p188
sS'jacques stella'
p189
S'jacques de stella'
p190
sS'jacques van schuppen'
p191
S'jacob van schuppen'
p192
sS'bernat martorell'
p193
S'bernardo martorell'
p194
sS'matthijs naiveu'
p195
S'matthys naiveu'
p196
sS'meyndert hobbema'
p197
S'meindert hobbema'
p198
sS'dirck dircksz. santvoort'
p199
S'dirck van santvoort'
p200
sS'abraham jansz. begeyn'
p201
S'abraham begeyn'
p202
sS'aleksey petrovich antropov'
p203
S'aleksei antropov'
p204
sS'charles-gabriel gleyre'
p205
S'charles gleyre'
p206
sS'troph\xeeme bigot'
p207
S'trophime bigot'
p208
sS'giovanni jacopo caraglio'
p209
S'gian jacopo caraglio'
p210
sS'carl borrom\xe4us andreas ruthart'
p211
S'carl borromaus andreas ruthart'
p212
sS'hendrick gerritsz pot'
p213
S'hendrick gerritsz. pot'
p214
sS'jean-baptiste camille corot'
p215
S'jean-baptiste-camille corot'
p216
sS'joachim patenier'
p217
S'joachim patinir'
p218
sS'jean-jacques lagren\xc9e'
p219
S'jean-jacques lagrenee'
p220
sS'alexandre gabriel decamps'
p221
S'alexandre-gabriel decamps'
p222
sS'juan de zurbar\xc1n'
p223
S'juan de zurbaran'
p224
sS'hendrick maertensz. sorgh'
p225
S'hendrik martensz sorgh'
p226
sS'ivan nikitich nikitin'
p227
S'ivan nikitin'
p228
sS'nicolas de largilli?re'
p229
S'nicolas de largilliere'
p230
sS'vincent ii laurensz. van der vinne'
p231
S'vincent laurensz van der vinne'
p232
sS'alexandre-fran\xe7ois desportes'
p233
S'alexandre-francois desportes'
p234
sS'cornelis claesz van wieringen'
p235
S'cornelis claesz. van wieringen'
p236
sS'jean ii restout'
p237
g124
sS'juan antonio frias y escalante'
p238
S'juan antonio escalante'
p239
sS'fran\xe7ois clouet'
p240
S'francois clouet'
p241
sS'ivan yakovlevich vishnyakov'
p242
S'ivan vishnyakov'
p243
sS'giovanni battista piazzetta'
p244
S'giovanni batista piazetta'
p245
sS'juan sim\xf3n guti\xc9rrez'
p246
S'juan simon gutierrez'
p247
sS'william-adolphe bouguereau'
p248
S'adolphe william bouguereau'
p249
sS'thomas wijck'
p250
S'thomas wyck'
p251
sS'th\xe9odore chass\xc9riau'
p252
S'theodore chasseriau'
p253
sS'george clausen'
p254
S'sir george clausen'
p255
sS'pieter the younger claeissens'
p256
S'pieter claeissens i'
p257
sS'henry herbert la thangue'
p258
S'henry h. la thangue'
p259
sS'jan symonsz. pynas'
p260
S'jan pynas'
p261
sS'johan christian clausen dahl'
p262
S'johan christian dahl'
p263
sS'anne-louis girodet de roucy-trioson'
p264
S'anne-louis girodet de roussy-trioson'
p265
sS'fyodor rokotov'
p266
S'fedor rokotov'
p267
sS'g\xe9rard de lairesse'
p268
S'gerard de lairesse'
p269
sS'nikolaus haguenauer'
p270
S'niclaus of haguenau'
p271
sS'l\xe9on-augustin lhermitte'
p272
S"leon augustin l'hermitte"
p273
sS'mart\xedn rico y ortega'
p274
S'martin rico y ortega'
p275
sS'vincent i laurensz. van der vinne'
p276
g232
sS"margarito d'arezzo"
p277
S"margaritone d'arezzo"
p278
sS'bonaventura peeters'
p279
S'bonaventura peeters i'
p280
sS'master of the joseph sequence'
p281
S'master of the joseph legend'
p282
sS'ad\xe9laide labille-guiard'
p283
S'adelaide labille-guiard'
p284
sS'fran\xe7ois garnier'
p285
S'francois garnier'
p286
sS'frans i francken'
p287
S'frans francken i'
p288
sS'j\xf6rg the elder breu'
p289
S'jorg breu the elder'
p290
sS'isaak soreau'
p291
S'isaac soreau'
p292
sS'pieter jansz. quast'
p293
S'pieter jansz quast'
p294
sS'laurent de la hire'
p295
S'laurent de la hyre'
p296
sS'carlo maratti'
p297
S'carlo maratta'
p298
sS"guariento d'arpo"
p299
S'guariento di arpo'
p300
sS'ernst lawson'
p301
S'ernest lawson'
p302
sS'giovan battista viola'
p303
S'gian battista viola'
p304
sS'paul c\xc9zanne'
p305
S'paul cezanne'
p306
sS'dirck willemsz. stoop'
p307
S'dirck stoop'
p308
sS'jean-baptiste pillement'
p309
S'jean baptiste pillement'
p310
sS'fritz thaulow'
p311
S'frits thaulow'
p312
sS'james abbot mcneill whistler'
p313
S'james mcneill whistler'
p314
sS'pierre-narcisse gu\xc9rin'
p315
S'pierre-narcisse guerin'
p316
sS'sir john everett millais'
p317
S'john everett millais'
p318
sS'henry moret'
p319
S'henri moret'
p320
sS'jan van boeckhorst'
p321
S'johann boeckhorst'
p322
sS'bonaventura i peeters'
p323
g280
sS'michiel jansz. van miereveld'
p324
S'michiel jansz. miereveld'
p325
sS'eug?ne fromentin'
p326
S'eugene fromentin'
p327
sS'benedetto i gennari'
p328
S'benedetto gennari'
p329
sS'jules dupr\xc9'
p330
S'jules dupre'
p331
sS'ambrosius the elder bosschaert'
p332
S'ambrosius bosschaert the elder'
p333
sS'jean-fran\xe7ois millet'
p334
S'jean-francois millet'
p335
sS'jan weenix'
p336
S'jan weenix ii'
p337
sS'enguerrand charonton'
p338
S'enguerrand quarton'
p339
sS'anna dorothea lisiewska'
p340
S'anna dorothea therbusch'
p341
sS'adriaen frans boudewijns'
p342
S'adriaen frans boudewyns'
p343
sS'carlo braccesco'
p344
S'carlo di braccesco'
p345
sS'johannes vermeer'
p346
S'jan vermeer'
p347
sS'pieter jansz saenredam'
p348
S'pieter jansz. saenredam'
p349
sS'thomas iii seddon'
p350
S'thomas seddon'
p351
sS'adam frans van der meulen'
p352
S'adam-franz van der meulen'
p353
sS'fran\xe7ois-joseph navez'
p354
S'francois-joseph navez'
p355
sS's\xe9bastien stoskopff'
p356
S'sebastien stoskopff'
p357
sS'roelandt roghman'
p358
S'roelant roghman'
p359
sS'andrey rublyov'
p360
S'andrei rublev'
p361
sS'lluis borrassa'
p362
S'luis borrassa'
p363
sS'j\xf6rg ratgeb'
p364
S'jorg ratgeb'
p365
sS'louise moillon'
p366
S'louisa moillon'
p367
sS"neroccio de' landi"
p368
S'neroccio'
p369
sS'lluis dalmau'
p370
S'luis dalmau'
p371
sS'lorenzo the elder costa'
p372
S'lorenzo costa'
p373
sS'karl pavlovich bryullov'
p374
S'karl briullov'
p375
sS'niccol? pisano'
p376
S'nicola pisano'
p377
sS'floris claesz van dijck'
p378
S'floris van dijck'
p379
sS"baldassare d' este"
p380
S'baldassare estense'
p381
sS'pieter the elder mulier'
p382
S'pieter mulier'
p383
sS'callisto piazza da lodi'
p384
S'callisto piazza'
p385
sS'niccol? di pietro'
p386
g106
sS'johannes i verkolje'
p387
S'jan verkolje'
p388
sS'stanislas l\xc9pine'
p389
S'stanislas lepine'
p390
sS'\xc9tienne-maurice falconet'
p391
S'etienne-maurice falconet'
p392
sS'hans s\xfcss von kulmbach'
p393
S'hans suss von kulmbach'
p394
sS'nicolaus kn\xdcpfer'
p395
S'nicolaus knupfer'
p396
sS'noel-nicolas coypel'
p397
S'noel coypel'
p398
sS'marten van i valckenborch'
p399
S'marten van valckenborch'
p400
sS'asher brown durand'
p401
S'asher b. durand'
p402
sS'helen galloway mcnicoll'
p403
S'helen mcnicoll'
p404
sS'pieter gijsels'
p405
S'pieter gysels'
p406
sS'fra bartolomeo'
p407
S'fra bartolommeo'
p408
sS'jacopo amigoni'
p409
S'giacomo amiconi'
p410
sS'albert-charles lebourg'
p411
S'albert lebourg'
p412
sS'sebastian vrancx'
p413
S'bastiaen vrancx'
p414
sS"sil'vestr fedosyevich shchedrin"
p415
S"sil'vestr feodosievich shchedrin"
p416
sS'bartolomeo caporali'
p417
S'bartolommeo caporali'
p418
sS'lodewijk toeput'
p419
S'lodewyk toeput'
p420
sS'dirck hals'
p421
S'dirk hals'
p422
sS'jan jansz. van de velde'
p423
S'jan jansz. van de velde iii'
p424
sS'pieter claesz.'
p425
S'pieter claesz'
p426
sS'master of the fontainebleau school'
p427
S'masters of the fontainebleau'
p428
sS'albrecht d\xdcrer'
p429
S'albrecht durer'
p430
sS'jan mijtens'
p431
S'jan mytens'
p432
sS'bartolom\xe9 bermejo'
p433
S'bartolome bermejo'
p434
sS'ugolino-lorenzetti'
p435
S'ugolino lorenzetti'
p436
sS'master of st francis'
p437
S'master of saint francis'
p438
sS'gabriel-fran\xe7ois doyen'
p439
S'gabriel-francois doyen'
p440
sS'jean baptiste joseph pater'
p441
S'jean-baptiste joseph pater'
p442
sS'willem pietersz. buytewech'
p443
S'willem buytewech'
p444
sS'floris gerritsz. van schooten'
p445
S'floris van schooten'
p446
sS'bartolom\xe9 carducho'
p447
S'bartolommeo carducci'
p448
sS'mih\xe1ly munk\xc1csy'
p449
S'mihaly munkacsy'
p450
sS'herri met de bles'
p451
S'henry met de bles'
p452
sS'hendrick van the younger steenwyck'
p453
S'hendrik van steenwyck the younger'
p454
sS'charles \xc9mile jacque'
p455
S'charles emile jacque'
p456
sS'jacob willemsz. de wet'
p457
S'jacob de wet'
p458
sS'theodoor loon'
p459
S'theodoor van loon'
p460
sS'abraham danielsz. hondius'
p461
S'abraham hondius'
p462
sS'guy fran\xc7ois'
p463
S'guy francois'
p464
sS'gerard i hoet'
p465
S'gerard hoet'
p466
sS'mariano salvador de maella'
p467
S'mariano salvador maella'
p468
sS'rose-ad\xe9laide ducreux'
p469
S'rose adelaide ducreux'
p470
sS'marguerite g\xc9rard'
p471
S'marguerite gerard'
p472
sS'marten de vos'
p473
S'martin de vos'
p474
sS'moyses matheusz van uyttenbroeck'
p475
S'moses van uyttenbroeck'
p476
sS'jacob symonsz. pynas'
p477
S'jacob pynas'
p478
sS'theodor van thulden'
p479
S'theodoor van thulden'
p480
sS'jean b\xc9raud'
p481
S'jean beraud'
p482
sS'maerten ryckaert'
p483
S'martin ryckaert'
p484
sS'pierre the younger le gros'
p485
S'pierre le gros ii'
p486
sS'theodor rombouts'
p487
S'theodore rombouts'
p488
sS'franciscus gysbrechts'
p489
S'franciscus gijsbrechts'
p490
sS'juan carre?o de miranda'
p491
S'juan carreno de miranda'
p492
sS'konrad von soest'
p493
S'konrad of soest'
p494
sS'matthias gr\xdcnewald'
p495
S'matthias grunewald'
p496
sS'jan antonisz. van ravesteyn'
p497
S'jan van ravesteyn'
p498
sS'fran\xe7ois-xavier fabre'
p499
S'francois-xavier fabre'
p500
sS'jacob de ii gheyn'
p501
S'jacques de gheyn'
p502
sS'henri mauperch\xc9'
p503
S'henri mauperche'
p504
sS'giovanni balducci'
p505
S'giovanni da balduccio'
p506
sS'master of the view of ste gudule'
p507
S'master of the view of sainte gudule'
p508
sS'antonio del pollaiuolo'
p509
S'antonio pollaiolo'
p510
sS'wilhelm tr\xdcbner'
p511
S'wilhelm trubner'
p512
sS'gherardo di giovanni del fora'
p513
S'gherardo di giovanni'
p514
sS'pieter the younger mulier'
p515
g383
sS'johann heinrich roos'
p516
S'johan heinrich roos'
p517
sS'alexander keirinckx'
p518
S'alexander keirincx'
p519
sS'josef franz danhauser'
p520
S'josef danhauser'
p521
sS'vasily andreyevich tropinin'
p522
S'vasilii andreevich tropinin'
p523
sS'emile schuffenecker'
p524
S'claude-emile schuffenecker'
p525
sS'quiringh van brekelenkam'
p526
S'quirijn van brekelenkam'
p527
sS'adriaen jansz. van ostade'
p528
S'adriaen van ostade'
p529
sS'fran\xe7ois-joseph heim'
p530
S'francois-joseph heim'
p531
sS'juan de vald\xc9s leal'
p532
S'juan de valdes leal'
p533
sS'luis jim\xc9nez y aranda'
p534
S'luis jimenez aranda'
p535
sS'robert tourni?res'
p536
S'robert tournieres'
p537
sS'joos de momper'
p538
S'joos de momper ii'
p539
sS'francisco de zurbar\xc1n'
p540
S'francisco de zurbaran'
p541
sS'jan mandijn'
p542
S'jan mandyn'
p543
sS'charles-fran\xe7ois daubigny'
p544
S'charles-francois daubigny'
p545
sS'jakab bogd\xc1ny'
p546
S'jakob bogdany'
p547
sS'lanceloot blondeel'
p548
S'lancelot blondeel'
p549
sS'jean-honor\xe9 fragonard'
p550
S'jean-honore fragonard'
p551
sS'jean-fr\xe9d\xe9ric bazille'
p552
S'frederic bazille'
p553
sS'karl friedrich lessing'
p554
S'carl friedrich lessing'
p555
sS'baciccio'
p556
S'il baciccio'
p557
sS'eva gonzal?s'
p558
S'eva gonzales'
p559
sS'th\xe9odore g\xc9ricault'
p560
S'theodore gericault'
p561
sS'fray juan bautista maino'
p562
S'juan bautista mayno'
p563
sS'vincenzo catena'
p564
S'vincenzo di catena'
p565
sS'eug?ne carri?re'
p566
S'eugene carriere'
p567
sS'jan harmensz. muller'
p568
S'jan h. muller'
p569
sS'catharina van hemessen'
p570
S'caterina van hemessen'
p571
sS's\xe9bastien bourdon'
p572
S'sebastien bourdon'
p573
sS'gustave dor\xc9'
p574
S'gustave dore'
p575
sS'ivan konstantinovich aivazovsky'
p576
S'ivan aivazovsky'
p577
sS'anselm friedrich feuerbach'
p578
S'anselm feuerbach'
p579
sS'th\xe9odore gudin'
p580
S'theodore gudin'
p581
sS'simon renard de saint-andr\xc9'
p582
S'simon renard de saint-andre'
p583
sS'joseph francis nollekens'
p584
S'joseph nollekens'
p585
sS'bastiano mainardi'
p586
S'sebastiano mainardi'
p587
sS'bartolom\xe9 esteban murillo'
p588
S'bartolome esteban murillo'
p589
sS'ambrogio bergognone'
p590
S'bergognone'
p591
sS'pordenone'
p592
S'il pordenone'
p593
sS'jean-baptiste-sim\xe9on chardin'
p594
S'jean-baptiste-simeon chardin'
p595
sS'j\xe9r\xf4me-martin langlois'
p596
S'jerome-martin langlois'
p597
sS'fran\xe7ois de troy'
p598
S'francois de troy'
p599
sS'giovanni battista langetti'
p600
S'giovan battista langetti'
p601
sS'christen k?bke'
p602
S'christen kobke'
p603
sS"giusto de' menabuoi"
p604
S'giusto de menabuoi'
p605
sS'jan vermeulen'
p606
S'jan vermeyen'
p607
sS'jacob ferdinand voet'
p608
S'ferdinand voet'
p609
sS'adolph von menzel'
p610
S'adolf von menzel'
p611
sS'stefan lochner'
p612
S'stephan lochner'
p613
sS'pierre-c\xe9cile puvis de chavannes'
p614
S'pierre puvis de chavannes'
p615
sS"jacopo de' barbari"
p616
S"jacopo de'barbari"
p617
sS'narcisse virgile diaz de la pe?a'
p618
S'narcisse-virgile diaz de la pena'
p619
sS'louis the younger boullogne'
p620
S'louis de boullogne'
p621
sS'joseph-marie vien'
p622
S'joseph marie vien'
p623
sS'federico fiori barocci'
p624
S'federico barocci'
p625
sS'honor\xe9 daumier'
p626
S'honore daumier'
p627
sS'th\xe9odore rousseau'
p628
S'theodore rousseau'
p629
sS'rembrandt harmenszoon van rijn'
p630
S'rembrandt van rijn'
p631
sS'nicolas r\xc9gnier'
p632
S'nicolas regnier'
p633
sS'jacob gerritsz. cuyp'
p634
S'jacob gerritz. cuyp'
p635
sS'simon luttichuijs'
p636
S'simon luttichuys'
p637
sS'anna kirstine ancher'
p638
S'anna ancher'
p639
sS'cecchino del salviati'
p640
S'francesco salviati'
p641
sS'gioachino assereto'
p642
S'gioacchino assereto'
p643
sS'arnold b\xd6cklin'
p644
S'arnold bocklin'
p645
sS'werner jacobsz. van den valckert'
p646
S'werner van den valckert'
p647
sS'job adriaensz berckheyde'
p648
S'job berckheyde'
p649
sS'fran\xe7ois boucher'
p650
S'francois boucher'
p651
sS'ilya yefimovich repin'
p652
S'ilya repin'
p653
sS'matth\xe4us the younger merian'
p654
S'matthaus merian the younger'
p655
sS'jean-l\xe9on g\xc9r\xd4me'
p656
S'jean-leon gerome'
p657
sS'johann karl loth'
p658
S'johann carl loth'
p659
sS'j\xfcrgen ovens'
p660
S'jurgen ovens'
p661
sS'denis van alsloot'
p662
S'denys van alsloot'
p663
sS'piero del pollaiuolo'
p664
S'piero pollaiolo'
p665
sS'pedro de campa?a'
p666
S'pedro de campana'
p667
sS'charles-joseph natoire'
p668
S'charles joseph natoire'
p669
sS'jean-fran\xe7ois de troy'
p670
S'jean-francois de troy'
p671
sS'joaqu\xedn sorolla y bastida'
p672
S'joaquin sorolla y bastida'
p673
sS'fran\xe7ois-andr\xe9 vincent'
p674
S'francois-andre vincent'
p675
sS'fran\xe7ois g\xc9rard'
p676
S'francois gerard'
p677
sS'fedinand georg waldm\xdcller'
p678
S'ferdinand georg waldmuller'
p679
sS'henri-jean-guillaume martin'
p680
S'henri martin'
p681
sS'karl blechen'
p682
S'carl blechen'
p683
sS'frederick de moucheron'
p684
S'frederic de moucheron'
p685
sS'paulus van somer'
p686
S'paul van somer'
p687
sS'ulrich the elder apt'
p688
S'ulrich apt the elder'
p689
sS'daniel ii schultz'
p690
S'daniel schultz'
p691
sS'simon pietersz. verelst'
p692
S'simon verelst'
p693
s.